EXPORTS 
	?$TSS0@?1??_GetStaticAmbientSchedulerStorage@details@Concurrency@@YAPEAV?$shared_ptr@Uscheduler_interface@Concurrency@@@std@@XZ@4HA 	 DATA
	?$TSS0@?1??get_payload@message@mqtt@@QEBAAEBV?$basic_string@DU?$char_traits@D@std@@V?$allocator@D@2@@std@@XZ@4HA 	 DATA
	?$TSS0@?1??get_topic@message@mqtt@@QEBAAEBV?$basic_string@DU?$char_traits@D@std@@V?$allocator@D@2@@std@@XZ@4HA 	 DATA
	??_R0?AU?$_InitialTaskHandle@XV<lambda_16db0a518715f6321653a25f2424e302>@@U_TypeSelectorNoAsync@details@Concurrency@@@?$task@E@Concurrency@@@8 	 DATA
	??_R0?AU?$_InitialTaskHandle@XV<lambda_a28169bf5ada89786cdd03ccb91074b7>@@U_TypeSelectorNoAsync@details@Concurrency@@@?$task@E@Concurrency@@@8 	 DATA
	??_R0?AU?$_PPLTaskHandle@EU?$_InitialTaskHandle@XV<lambda_16db0a518715f6321653a25f2424e302>@@U_TypeSelectorNoAsync@details@Concurrency@@@?$task@E@Concurrency@@U_TaskProcHandle@details@3@@details@Concurrency@@@8 	 DATA
	??_R0?AU?$_PPLTaskHandle@EU?$_InitialTaskHandle@XV<lambda_a28169bf5ada89786cdd03ccb91074b7>@@U_TypeSelectorNoAsync@details@Concurrency@@@?$task@E@Concurrency@@U_TaskProcHandle@details@3@@details@Concurrency@@@8 	 DATA
	??_R0?AU?$_Task_impl@E@details@Concurrency@@@8 	 DATA
	??_R0?AU_TaskProcHandle@details@Concurrency@@@8 	 DATA
	??_R0?AU_Task_impl_base@details@Concurrency@@@8 	 DATA
	??_R0?AUscheduler_interface@Concurrency@@@8 	 DATA
	??_R0?AUsubscribe_response@mqtt@@@8 	 DATA
	??_R0?AV<lambda_052e919cc0e5399df76dff3972c0cac1>@@@8 	 DATA
	??_R0?AV<lambda_16db0a518715f6321653a25f2424e302>@@@8 	 DATA
	??_R0?AV<lambda_4d9f54b62c80a46497c8ee29775a19d4>@@@8 	 DATA
	??_R0?AV<lambda_682f2f383c70f45f1f9b18ee8e8227fb>@@@8 	 DATA
	??_R0?AV<lambda_713ee8bbd6b08550d59c52695cab5ce3>@@@8 	 DATA
	??_R0?AV<lambda_763529b0c7473cbc215a52d189ac9b18>@@@8 	 DATA
	??_R0?AV<lambda_a28169bf5ada89786cdd03ccb91074b7>@@@8 	 DATA
	??_R0?AV<lambda_f25c37099038263181b5186a3fa41b37>@@@8 	 DATA
	??_R0?AV?$_Associated_state@H@std@@@8 	 DATA
	??_R0?AV?$_CancellationTokenCallback@V<lambda_be3e5d9dce35d2c8dbfa8485373731d5>@@@details@Concurrency@@@8 	 DATA
	??_R0?AV?$_Deferred_async_state@X@std@@@8 	 DATA
	??_R0?AV?$_Fake_no_copy_callable_adapter@P8callback@mqtt@@EAAXAEBV?$basic_string@DU?$char_traits@D@std@@V?$allocator@D@2@@std@@@ZAEAPEAV12@AEBV34@@std@@@8 	 DATA
	??_R0?AV?$_Fake_no_copy_callable_adapter@P8callback@mqtt@@EAAXV?$shared_ptr@Vdelivery_token@mqtt@@@std@@@ZAEAPEAV12@AEAV34@@std@@@8 	 DATA
	??_R0?AV?$_Func_base@E$$V@std@@@8 	 DATA
	??_R0?AV?$_Func_base@X$$V@std@@@8 	 DATA
	??_R0?AV?$_Func_impl_no_alloc@V<lambda_052e919cc0e5399df76dff3972c0cac1>@@E$$V@std@@@8 	 DATA
	??_R0?AV?$_Func_impl_no_alloc@V<lambda_16db0a518715f6321653a25f2424e302>@@X$$V@std@@@8 	 DATA
	??_R0?AV?$_Func_impl_no_alloc@V<lambda_713ee8bbd6b08550d59c52695cab5ce3>@@X$$V@std@@@8 	 DATA
	??_R0?AV?$_Func_impl_no_alloc@V<lambda_763529b0c7473cbc215a52d189ac9b18>@@X$$V@std@@@8 	 DATA
	??_R0?AV?$_Func_impl_no_alloc@V<lambda_a28169bf5ada89786cdd03ccb91074b7>@@X$$V@std@@@8 	 DATA
	??_R0?AV?$_Func_impl_no_alloc@V<lambda_f25c37099038263181b5186a3fa41b37>@@X$$V@std@@@8 	 DATA
	??_R0?AV?$_Func_impl_no_alloc@V?$_Fake_no_copy_callable_adapter@P8callback@mqtt@@EAAXAEBV?$basic_string@DU?$char_traits@D@std@@V?$allocator@D@2@@std@@@ZAEAPEAV12@AEBV34@@std@@X$$V@std@@@8 	 DATA
	??_R0?AV?$_Func_impl_no_alloc@V?$_Fake_no_copy_callable_adapter@P8callback@mqtt@@EAAXV?$shared_ptr@Vdelivery_token@mqtt@@@std@@@ZAEAPEAV12@AEAV34@@std@@X$$V@std@@@8 	 DATA
	??_R0?AV?$_Packaged_state@$$A6AXXZ@std@@@8 	 DATA
	??_R0?AV?$_Ref_count_obj@U?$_Task_impl@E@details@Concurrency@@@std@@@8 	 DATA
	??_R0?AV?$_Ref_count_obj@U_ExceptionHolder@details@Concurrency@@@std@@@8 	 DATA
	??_R0?AV?$_Ref_count_obj@V?$basic_string@DU?$char_traits@D@std@@V?$allocator@D@2@@std@@@std@@@8 	 DATA
	??_R0?AV?$_Ref_count_obj@Vdelivery_token@mqtt@@@std@@@8 	 DATA
	??_R0?AV?$_Ref_count_obj@Vmessage@mqtt@@@std@@@8 	 DATA
	??_R0?AV?$_Ref_count_obj@Vstring_collection@mqtt@@@std@@@8 	 DATA
	??_R0?AV?$_Ref_count_obj@Vtoken@mqtt@@@std@@@8 	 DATA
	??_R0?AV?$_Ref_count_resource@PEAVmessage@mqtt@@V<lambda_682f2f383c70f45f1f9b18ee8e8227fb>@@@std@@@8 	 DATA
	??_R0?AV?$_Ref_count_resource@PEAVstring_collection@mqtt@@V<lambda_4d9f54b62c80a46497c8ee29775a19d4>@@@std@@@8 	 DATA
	??_R0?AV?$_Task_async_state@X@std@@@8 	 DATA
	??_R0?AV_CancellationTokenRegistration@details@Concurrency@@@8 	 DATA
	??_R0?AV_DefaultPPLTaskScheduler@details@Concurrency@@@8 	 DATA
	??_R0?AV_Future_error_category@std@@@8 	 DATA
	??_R0?AV_Generic_error_category@std@@@8 	 DATA
	??_R0?AV_Interruption_exception@details@Concurrency@@@8 	 DATA
	??_R0?AV_RefCounter@details@Concurrency@@@8 	 DATA
	??_R0?AV_Ref_count_base@std@@@8 	 DATA
	??_R0?AV_System_error@std@@@8 	 DATA
	??_R0?AVasync_client@mqtt@@@8 	 DATA
	??_R0?AVbad_cast@std@@@8 	 DATA
	??_R0?AVcallback@mqtt@@@8 	 DATA
	??_R0?AVclient@mqtt@@@8 	 DATA
	??_R0?AVconnect_response@mqtt@@@8 	 DATA
	??_R0?AVdelivery_token@mqtt@@@8 	 DATA
	??_R0?AVerror_category@std@@@8 	 DATA
	??_R0?AVexception@mqtt@@@8 	 DATA
	??_R0?AVexception@std@@@8 	 DATA
	??_R0?AViasync_client@mqtt@@@8 	 DATA
	??_R0?AVinvalid_argument@std@@@8 	 DATA
	??_R0?AVinvalid_operation@Concurrency@@@8 	 DATA
	??_R0?AVlogic_error@std@@@8 	 DATA
	??_R0?AVmissing_response@mqtt@@@8 	 DATA
	??_R0?AVruntime_error@std@@@8 	 DATA
	??_R0?AVserver_response@mqtt@@@8 	 DATA
	??_R0?AVsystem_error@std@@@8 	 DATA
	??_R0?AVtask_canceled@Concurrency@@@8 	 DATA
	??_R0?AVtoken@mqtt@@@8 	 DATA
	??_R0?AVunsubscribe_response@mqtt@@@8 	 DATA
	?DFLT_TIMEOUT@client@mqtt@@0V?$duration@HU?$ratio@$0DM@$00@std@@@chrono@std@@B 	 DATA
	?EMPTY_BIN@?1??get_payload@message@mqtt@@QEBAAEBV?$basic_string@DU?$char_traits@D@std@@V?$allocator@D@2@@std@@XZ@4V45@B 	 DATA
	?EMPTY_STR@?1??get_topic@message@mqtt@@QEBAAEBV?$basic_string@DU?$char_traits@D@std@@V?$allocator@D@2@@std@@XZ@4V45@B 	 DATA
	?_Flag@?1???$_Immortalize@V_Future_error_category@std@@@std@@YAAEAV_Future_error_category@1@XZ@4PEAXEA 	 DATA
	?_Flag@?1???$_Immortalize@V_Generic_error_category@std@@@std@@YAAEAV_Generic_error_category@1@XZ@4PEAXEA 	 DATA
	?_Flag@?1??_GetStaticAmbientSchedulerRef@details@Concurrency@@YAAEAV?$shared_ptr@Uscheduler_interface@Concurrency@@@std@@XZ@4PEAXEA 	 DATA
	?_S_scheduler@?1??_GetStaticAmbientSchedulerStorage@details@Concurrency@@YAPEAV?$shared_ptr@Uscheduler_interface@Concurrency@@@std@@XZ@4V45@A 	 DATA
	?_S_scheduler_address@?1??_GetStaticAmbientSchedulerRef@details@Concurrency@@YAAEAV?$shared_ptr@Uscheduler_interface@Concurrency@@@std@@XZ@4PEAV45@EA 	 DATA
	?_Storage@?1???$_Immortalize@V_Future_error_category@std@@@std@@YAAEAV_Future_error_category@1@XZ@4T?$_Align_type@N$0BA@@1@A 	 DATA
	?_Storage@?1???$_Immortalize@V_Generic_error_category@std@@@std@@YAAEAV_Generic_error_category@1@XZ@4T?$_Align_type@N$0BA@@1@A 	 DATA
	??$?0$$V@?$_Compressed_pair@U?$default_delete@UMQTTClient_persistence@@@std@@PEAUMQTTClient_persistence@@$00@std@@QEAA@U_Zero_then_variadic_args_t@1@@Z
	??$?0$$V@?$_Compressed_pair@U?$default_delete@Usubscribe_response@mqtt@@@std@@PEAUsubscribe_response@mqtt@@$00@std@@QEAA@U_Zero_then_variadic_args_t@1@@Z
	??$?0$$V@?$_Compressed_pair@U?$default_delete@V?$thread_queue@V?$shared_ptr@$$CBVmessage@mqtt@@@std@@V?$deque@V?$shared_ptr@$$CBVmessage@mqtt@@@std@@V?$allocator@V?$shared_ptr@$$CBVmessage@mqtt@@@std@@@2@@2@@mqtt@@@std@@PEAV?$thread_queue@V?$shared_ptr@$$CBVmessage@mqtt@@@std@@V?$deque@V?$shared_ptr@$$CBVmessage@mqtt@@@std@@V?$allocator@V?$shared_ptr@$$CBVmessage@mqtt@@@std@@@2@@2@@mqtt@@$00@std@@QEAA@U_Zero_then_variadic_args_t@1@@Z
	??$?0$$V@?$_Compressed_pair@U?$default_delete@Vconnect_response@mqtt@@@std@@PEAVconnect_response@mqtt@@$00@std@@QEAA@U_Zero_then_variadic_args_t@1@@Z
	??$?0$$V@?$_Compressed_pair@U?$default_delete@Vunsubscribe_response@mqtt@@@std@@PEAVunsubscribe_response@mqtt@@$00@std@@QEAA@U_Zero_then_variadic_args_t@1@@Z
	??$?0$$V@?$_Compressed_pair@V?$allocator@D@std@@V?$_String_val@U?$_Simple_types@D@std@@@2@$00@std@@QEAA@U_Zero_then_variadic_args_t@1@@Z
	??$?0$$V@?$_Compressed_pair@V?$allocator@H@std@@V?$_Vector_val@U?$_Simple_types@H@std@@@2@$00@std@@QEAA@U_Zero_then_variadic_args_t@1@@Z
	??$?0$$V@?$_Compressed_pair@V?$allocator@PEAX@std@@V?$_Vector_val@U?$_Simple_types@PEAX@std@@@2@$00@std@@QEAA@U_Zero_then_variadic_args_t@1@@Z
	??$?0$$V@?$_Compressed_pair@V?$allocator@PEBD@std@@V?$_Vector_val@U?$_Simple_types@PEBD@std@@@2@$00@std@@QEAA@U_Zero_then_variadic_args_t@1@@Z
	??$?0$$V@?$_Compressed_pair@V?$allocator@U?$_List_node@V?$shared_ptr@Vdelivery_token@mqtt@@@std@@PEAX@std@@@std@@V?$_List_val@U?$_List_simple_types@V?$shared_ptr@Vdelivery_token@mqtt@@@std@@@std@@@2@$00@std@@QEAA@U_Zero_then_variadic_args_t@1@@Z
	??$?0$$V@?$_Compressed_pair@V?$allocator@U?$_List_node@V?$shared_ptr@Vtoken@mqtt@@@std@@PEAX@std@@@std@@V?$_List_val@U?$_List_simple_types@V?$shared_ptr@Vtoken@mqtt@@@std@@@std@@@2@$00@std@@QEAA@U_Zero_then_variadic_args_t@1@@Z
	??$?0$$V@?$_Compressed_pair@V?$allocator@UMQTTSubscribe_options@@@std@@V?$_Vector_val@U?$_Simple_types@UMQTTSubscribe_options@@@std@@@2@$00@std@@QEAA@U_Zero_then_variadic_args_t@1@@Z
	??$?0$$V@?$_Compressed_pair@V?$allocator@V?$basic_string@DU?$char_traits@D@std@@V?$allocator@D@2@@std@@@std@@V?$_Vector_val@U?$_Simple_types@V?$basic_string@DU?$char_traits@D@std@@V?$allocator@D@2@@std@@@std@@@2@$00@std@@QEAA@U_Zero_then_variadic_args_t@1@@Z
	??$?0$$V@?$_Compressed_pair@V?$allocator@V?$buffer_view@D@mqtt@@@std@@V?$_Vector_val@U?$_Simple_types@V?$buffer_view@D@mqtt@@@std@@@2@$00@std@@QEAA@U_Zero_then_variadic_args_t@1@@Z
	??$?0$$V@?$_Compressed_pair@V?$allocator@V?$shared_ptr@$$CBVmessage@mqtt@@@std@@@std@@V?$_Deque_val@U?$_Deque_simple_types@V?$shared_ptr@$$CBVmessage@mqtt@@@std@@@std@@@2@$00@std@@QEAA@U_Zero_then_variadic_args_t@1@@Z
	??$?0$$V@?$_Compressed_pair@V?$allocator@V?$shared_ptr@Vdelivery_token@mqtt@@@std@@@std@@V?$_Vector_val@U?$_Simple_types@V?$shared_ptr@Vdelivery_token@mqtt@@@std@@@std@@@2@$00@std@@QEAA@U_Zero_then_variadic_args_t@1@@Z
	??$?0$$V@?$_Compressed_pair@V?$allocator@Vsubscribe_options@mqtt@@@std@@V?$_Vector_val@U?$_Simple_types@Vsubscribe_options@mqtt@@@std@@@2@$00@std@@QEAA@U_Zero_then_variadic_args_t@1@@Z
	??$?0$$V@?$_Compressed_pair@V?$allocator@W4ReasonCode@mqtt@@@std@@V?$_Vector_val@U?$_Simple_types@W4ReasonCode@mqtt@@@std@@@2@$00@std@@QEAA@U_Zero_then_variadic_args_t@1@@Z
	??$?0AEAPEAU_TaskProcHandle@details@Concurrency@@@?$_Compressed_pair@U?$default_delete@U_TaskProcHandle@details@Concurrency@@@std@@PEAU_TaskProcHandle@details@Concurrency@@$00@std@@QEAA@U_Zero_then_variadic_args_t@1@AEAPEAU_TaskProcHandle@details@Concurrency@@@Z
	??$?0AEAPEAV_CancellationTokenState@details@Concurrency@@AEAUscheduler_ptr@2@@?$_Ref_count_obj@U?$_Task_impl@E@details@Concurrency@@@std@@QEAA@AEAPEAV_CancellationTokenState@details@Concurrency@@AEAUscheduler_ptr@4@@Z
	??$?0AEAPEAV_PPLTaskChore@_DefaultPPLTaskScheduler@details@Concurrency@@@?$_Compressed_pair@U?$default_delete@V_PPLTaskChore@_DefaultPPLTaskScheduler@details@Concurrency@@@std@@PEAV_PPLTaskChore@_DefaultPPLTaskScheduler@details@Concurrency@@$00@std@@QEAA@U_Zero_then_variadic_args_t@1@AEAPEAV_PPLTaskChore@_DefaultPPLTaskScheduler@details@Concurrency@@@Z
	??$?0AEAPEAVcallback@mqtt@@@?$_Tuple_val@PEAVcallback@mqtt@@@std@@QEAA@AEAPEAVcallback@mqtt@@@Z
	??$?0AEAPEBDAEA_K@?$_Ref_count_obj@V?$basic_string@DU?$char_traits@D@std@@V?$allocator@D@2@@std@@@std@@QEAA@AEAPEBDAEA_K@Z
	??$?0AEAV?$shared_ptr@Vdelivery_token@mqtt@@@std@@@?$_Tuple_val@V?$shared_ptr@Vdelivery_token@mqtt@@@std@@@std@@QEAA@AEAV?$shared_ptr@Vdelivery_token@mqtt@@@1@@Z
	??$?0AEAVexception_ptr@std@@@?$_Tuple_val@AEAVexception_ptr@std@@@std@@QEAA@AEAVexception_ptr@1@@Z
	??$?0AEAViasync_client@mqtt@@AEAV?$shared_ptr@$$CBVmessage@mqtt@@@std@@@?$_Ref_count_obj@Vdelivery_token@mqtt@@@std@@QEAA@AEAViasync_client@mqtt@@AEAV?$shared_ptr@$$CBVmessage@mqtt@@@1@@Z
	??$?0AEAViasync_client@mqtt@@AEAV?$shared_ptr@$$CBVmessage@mqtt@@@std@@AEAPEAXAEAViaction_listener@1@@?$_Ref_count_obj@Vdelivery_token@mqtt@@@std@@QEAA@AEAViasync_client@mqtt@@AEAV?$shared_ptr@$$CBVmessage@mqtt@@@1@AEAPEAXAEAViaction_listener@3@@Z
	??$?0AEAW4Type@token@mqtt@@AEAViasync_client@2@@?$_Ref_count_obj@Vtoken@mqtt@@@std@@QEAA@AEAW4Type@token@mqtt@@AEAViasync_client@4@@Z
	??$?0AEAW4Type@token@mqtt@@AEAViasync_client@2@AEAPEAXAEAViaction_listener@2@@?$_Ref_count_obj@Vtoken@mqtt@@@std@@QEAA@AEAW4Type@token@mqtt@@AEAViasync_client@4@AEAPEAXAEAViaction_listener@4@@Z
	??$?0AEAW4Type@token@mqtt@@AEAViasync_client@2@AEAV?$shared_ptr@$$CBVstring_collection@mqtt@@@std@@@?$_Ref_count_obj@Vtoken@mqtt@@@std@@QEAA@AEAW4Type@token@mqtt@@AEAViasync_client@4@AEAV?$shared_ptr@$$CBVstring_collection@mqtt@@@1@@Z
	??$?0AEAW4Type@token@mqtt@@AEAViasync_client@2@AEAV?$shared_ptr@$$CBVstring_collection@mqtt@@@std@@AEAPEAXAEAViaction_listener@2@@?$_Ref_count_obj@Vtoken@mqtt@@@std@@QEAA@AEAW4Type@token@mqtt@@AEAViasync_client@4@AEAV?$shared_ptr@$$CBVstring_collection@mqtt@@@1@AEAPEAXAEAViaction_listener@4@@Z
	??$?0AEAW4Type@token@mqtt@@AEAViasync_client@2@AEBV?$basic_string@DU?$char_traits@D@std@@V?$allocator@D@2@@std@@@?$_Ref_count_obj@Vtoken@mqtt@@@std@@QEAA@AEAW4Type@token@mqtt@@AEAViasync_client@4@AEBV?$basic_string@DU?$char_traits@D@std@@V?$allocator@D@2@@1@@Z
	??$?0AEAW4Type@token@mqtt@@AEAViasync_client@2@AEBV?$basic_string@DU?$char_traits@D@std@@V?$allocator@D@2@@std@@AEAPEAXAEAViaction_listener@2@@?$_Ref_count_obj@Vtoken@mqtt@@@std@@QEAA@AEAW4Type@token@mqtt@@AEAViasync_client@4@AEBV?$basic_string@DU?$char_traits@D@std@@V?$allocator@D@2@@1@AEAPEAXAEAViaction_listener@4@@Z
	??$?0AEBV<lambda_052e919cc0e5399df76dff3972c0cac1>@@X@?$_Func_impl_no_alloc@V<lambda_052e919cc0e5399df76dff3972c0cac1>@@E$$V@std@@QEAA@AEBV<lambda_052e919cc0e5399df76dff3972c0cac1>@@@Z
	??$?0AEBV<lambda_16db0a518715f6321653a25f2424e302>@@X@?$_Func_impl_no_alloc@V<lambda_16db0a518715f6321653a25f2424e302>@@X$$V@std@@QEAA@AEBV<lambda_16db0a518715f6321653a25f2424e302>@@@Z
	??$?0AEBV<lambda_713ee8bbd6b08550d59c52695cab5ce3>@@X@?$_Func_impl_no_alloc@V<lambda_713ee8bbd6b08550d59c52695cab5ce3>@@X$$V@std@@QEAA@AEBV<lambda_713ee8bbd6b08550d59c52695cab5ce3>@@@Z
	??$?0AEBV<lambda_763529b0c7473cbc215a52d189ac9b18>@@X@?$_Func_impl_no_alloc@V<lambda_763529b0c7473cbc215a52d189ac9b18>@@X$$V@std@@QEAA@AEBV<lambda_763529b0c7473cbc215a52d189ac9b18>@@@Z
	??$?0AEBV<lambda_a28169bf5ada89786cdd03ccb91074b7>@@X@?$_Func_impl_no_alloc@V<lambda_a28169bf5ada89786cdd03ccb91074b7>@@X$$V@std@@QEAA@AEBV<lambda_a28169bf5ada89786cdd03ccb91074b7>@@@Z
	??$?0AEBV<lambda_f25c37099038263181b5186a3fa41b37>@@X@?$_Func_impl_no_alloc@V<lambda_f25c37099038263181b5186a3fa41b37>@@X$$V@std@@QEAA@AEBV<lambda_f25c37099038263181b5186a3fa41b37>@@@Z
	??$?0AEBV?$_Fake_no_copy_callable_adapter@P8callback@mqtt@@EAAXAEBV?$basic_string@DU?$char_traits@D@std@@V?$allocator@D@2@@std@@@ZAEAPEAV12@AEBV34@@std@@X@?$_Func_impl_no_alloc@V?$_Fake_no_copy_callable_adapter@P8callback@mqtt@@EAAXAEBV?$basic_string@DU?$char_traits@D@std@@V?$allocator@D@2@@std@@@ZAEAPEAV12@AEBV34@@std@@X$$V@std@@QEAA@AEBV?$_Fake_no_copy_callable_adapter@P8callback@mqtt@@EAAXAEBV?$basic_string@DU?$char_traits@D@std@@V?$allocator@D@2@@std@@@ZAEAPEAV12@AEBV34@@1@@Z
	??$?0AEBV?$_Fake_no_copy_callable_adapter@P8callback@mqtt@@EAAXV?$shared_ptr@Vdelivery_token@mqtt@@@std@@@ZAEAPEAV12@AEAV34@@std@@X@?$_Func_impl_no_alloc@V?$_Fake_no_copy_callable_adapter@P8callback@mqtt@@EAAXV?$shared_ptr@Vdelivery_token@mqtt@@@std@@@ZAEAPEAV12@AEAV34@@std@@X$$V@std@@QEAA@AEBV?$_Fake_no_copy_callable_adapter@P8callback@mqtt@@EAAXV?$shared_ptr@Vdelivery_token@mqtt@@@std@@@ZAEAPEAV12@AEAV34@@1@@Z
	??$?0AEBV?$allocator@D@std@@$$V@?$_Compressed_pair@V?$allocator@D@std@@V?$_String_val@U?$_Simple_types@D@std@@@2@$00@std@@QEAA@U_One_then_variadic_args_t@1@AEBV?$allocator@D@1@@Z
	??$?0AEBV?$allocator@V?$basic_string@DU?$char_traits@D@std@@V?$allocator@D@2@@std@@@std@@$$V@?$_Compressed_pair@V?$allocator@V?$basic_string@DU?$char_traits@D@std@@V?$allocator@D@2@@std@@@std@@V?$_Vector_val@U?$_Simple_types@V?$basic_string@DU?$char_traits@D@std@@V?$allocator@D@2@@std@@@std@@@2@$00@std@@QEAA@U_One_then_variadic_args_t@1@AEBV?$allocator@V?$basic_string@DU?$char_traits@D@std@@V?$allocator@D@2@@std@@@1@@Z
	??$?0AEBV?$basic_string@DU?$char_traits@D@std@@V?$allocator@D@2@@std@@@?$_Ref_count_obj@V?$basic_string@DU?$char_traits@D@std@@V?$allocator@D@2@@std@@@std@@QEAA@AEBV?$basic_string@DU?$char_traits@D@std@@V?$allocator@D@2@@1@@Z
	??$?0AEBV?$basic_string@DU?$char_traits@D@std@@V?$allocator@D@2@@std@@@?$_Ref_count_obj@Vstring_collection@mqtt@@@std@@QEAA@AEBV?$basic_string@DU?$char_traits@D@std@@V?$allocator@D@2@@1@@Z
	??$?0AEBV?$basic_string@DU?$char_traits@D@std@@V?$allocator@D@2@@std@@@?$_Tuple_val@V?$basic_string@DU?$char_traits@D@std@@V?$allocator@D@2@@std@@@std@@QEAA@AEBV?$basic_string@DU?$char_traits@D@std@@V?$allocator@D@2@@1@@Z
	??$?0AEBVexception_ptr@std@@V_TaskCreationCallstack@details@Concurrency@@@?$_Ref_count_obj@U_ExceptionHolder@details@Concurrency@@@std@@QEAA@AEBVexception_ptr@1@$$QEAV_TaskCreationCallstack@details@Concurrency@@@Z
	??$?0D@?$allocator@U_Container_proxy@std@@@std@@QEAA@AEBV?$allocator@D@1@@Z
	??$?0H@?$allocator@U_Container_proxy@std@@@std@@QEAA@AEBV?$allocator@H@1@@Z
	??$?0HU?$ratio@$0DM@$00@std@@X@?$duration@_JU?$ratio@$00$0DOI@@std@@@chrono@std@@QEAA@AEBV?$duration@HU?$ratio@$0DM@$00@std@@@12@@Z
	??$?0HX@?$duration@HU?$ratio@$0DM@$00@std@@@chrono@std@@QEAA@AEBH@Z
	??$?0HX@?$duration@_JU?$ratio@$00$0DOI@@std@@@chrono@std@@QEAA@AEBH@Z
	??$?0JX@?$duration@_JU?$ratio@$00$0DOI@@std@@@chrono@std@@QEAA@AEBJ@Z
	??$?0NU?$ratio@$00$00@std@@X@?$duration@NU?$ratio@$00$0DLJKMKAA@@std@@@chrono@std@@QEAA@AEBV?$duration@NU?$ratio@$00$00@std@@@12@@Z
	??$?0NX@?$duration@NU?$ratio@$00$0DLJKMKAA@@std@@@chrono@std@@QEAA@AEBN@Z
	??$?0P8callback@mqtt@@EAAXAEBV?$basic_string@DU?$char_traits@D@std@@V?$allocator@D@2@@std@@@Z@?$_Tuple_val@P8callback@mqtt@@EAAXAEBV?$basic_string@DU?$char_traits@D@std@@V?$allocator@D@2@@std@@@Z@std@@QEAA@$$QEAP8callback@mqtt@@EAAXAEBV?$basic_string@DU?$char_traits@D@std@@V?$allocator@D@2@@1@@Z@Z
	??$?0P8callback@mqtt@@EAAXAEBV?$basic_string@DU?$char_traits@D@std@@V?$allocator@D@2@@std@@@ZAEAPEAV01@AEBV23@$0A@@?$tuple@P8callback@mqtt@@EAAXAEBV?$basic_string@DU?$char_traits@D@std@@V?$allocator@D@2@@std@@@ZPEAV12@V34@@std@@QEAA@$$QEAP8callback@mqtt@@EAAXAEBV?$basic_string@DU?$char_traits@D@std@@V?$allocator@D@2@@1@@ZAEAPEAV23@0@Z
	??$?0P8callback@mqtt@@EAAXV?$shared_ptr@Vdelivery_token@mqtt@@@std@@@Z@?$_Tuple_val@P8callback@mqtt@@EAAXV?$shared_ptr@Vdelivery_token@mqtt@@@std@@@Z@std@@QEAA@$$QEAP8callback@mqtt@@EAAXV?$shared_ptr@Vdelivery_token@mqtt@@@1@@Z@Z
	??$?0P8callback@mqtt@@EAAXV?$shared_ptr@Vdelivery_token@mqtt@@@std@@@ZAEAPEAV01@AEAV23@$0A@@?$tuple@P8callback@mqtt@@EAAXV?$shared_ptr@Vdelivery_token@mqtt@@@std@@@ZPEAV12@V34@@std@@QEAA@$$QEAP8callback@mqtt@@EAAXV?$shared_ptr@Vdelivery_token@mqtt@@@1@@ZAEAPEAV23@AEAV41@@Z
	??$?0PEADX@?$basic_string@DU?$char_traits@D@std@@V?$allocator@D@2@@std@@QEAA@PEAD0AEBV?$allocator@D@1@@Z
	??$?0PEAX@?$allocator@U_Container_proxy@std@@@std@@QEAA@AEBV?$allocator@PEAX@1@@Z
	??$?0PEBD@?$allocator@U_Container_proxy@std@@@std@@QEAA@AEBV?$allocator@PEBD@1@@Z
	??$?0U?$_List_node@V?$shared_ptr@Vdelivery_token@mqtt@@@std@@PEAX@std@@@?$allocator@U_Container_proxy@std@@@std@@QEAA@AEBV?$allocator@U?$_List_node@V?$shared_ptr@Vdelivery_token@mqtt@@@std@@PEAX@std@@@1@@Z
	??$?0U?$_List_node@V?$shared_ptr@Vtoken@mqtt@@@std@@PEAX@std@@@?$allocator@U_Container_proxy@std@@@std@@QEAA@AEBV?$allocator@U?$_List_node@V?$shared_ptr@Vtoken@mqtt@@@std@@PEAX@std@@@1@@Z
	??$?0U?$_Task_impl@E@details@Concurrency@@$0A@@?$weak_ptr@U_Task_impl_base@details@Concurrency@@@std@@QEAA@AEBV?$shared_ptr@U?$_Task_impl@E@details@Concurrency@@@1@@Z
	??$?0U?$default_delete@UMQTTClient_persistence@@@std@@$0A@@?$unique_ptr@UMQTTClient_persistence@@U?$default_delete@UMQTTClient_persistence@@@std@@@std@@QEAA@$$T@Z
	??$?0U?$default_delete@U_TaskProcHandle@details@Concurrency@@@std@@$0A@@?$unique_ptr@U_TaskProcHandle@details@Concurrency@@U?$default_delete@U_TaskProcHandle@details@Concurrency@@@std@@@std@@QEAA@PEAU_TaskProcHandle@details@Concurrency@@@Z
	??$?0U?$default_delete@Usubscribe_response@mqtt@@@std@@$0A@@?$unique_ptr@Usubscribe_response@mqtt@@U?$default_delete@Usubscribe_response@mqtt@@@std@@@std@@QEAA@XZ
	??$?0U?$default_delete@V?$thread_queue@V?$shared_ptr@$$CBVmessage@mqtt@@@std@@V?$deque@V?$shared_ptr@$$CBVmessage@mqtt@@@std@@V?$allocator@V?$shared_ptr@$$CBVmessage@mqtt@@@std@@@2@@2@@mqtt@@@std@@$0A@@?$unique_ptr@V?$thread_queue@V?$shared_ptr@$$CBVmessage@mqtt@@@std@@V?$deque@V?$shared_ptr@$$CBVmessage@mqtt@@@std@@V?$allocator@V?$shared_ptr@$$CBVmessage@mqtt@@@std@@@2@@2@@mqtt@@U?$default_delete@V?$thread_queue@V?$shared_ptr@$$CBVmessage@mqtt@@@std@@V?$deque@V?$shared_ptr@$$CBVmessage@mqtt@@@std@@V?$allocator@V?$shared_ptr@$$CBVmessage@mqtt@@@std@@@2@@2@@mqtt@@@std@@@std@@QEAA@XZ
	??$?0U?$default_delete@V_PPLTaskChore@_DefaultPPLTaskScheduler@details@Concurrency@@@std@@$0A@@?$unique_ptr@V_PPLTaskChore@_DefaultPPLTaskScheduler@details@Concurrency@@U?$default_delete@V_PPLTaskChore@_DefaultPPLTaskScheduler@details@Concurrency@@@std@@@std@@QEAA@PEAV_PPLTaskChore@_DefaultPPLTaskScheduler@details@Concurrency@@@Z
	??$?0U?$default_delete@Vconnect_response@mqtt@@@std@@$0A@@?$unique_ptr@Vconnect_response@mqtt@@U?$default_delete@Vconnect_response@mqtt@@@std@@@std@@QEAA@XZ
	??$?0U?$default_delete@Vunsubscribe_response@mqtt@@@std@@$0A@@?$unique_ptr@Vunsubscribe_response@mqtt@@U?$default_delete@Vunsubscribe_response@mqtt@@@std@@@std@@QEAA@XZ
	??$?0UMQTTSubscribe_options@@@?$allocator@U_Container_proxy@std@@@std@@QEAA@AEBV?$allocator@UMQTTSubscribe_options@@@1@@Z
	??$?0U_Exact_args_t@std@@$0A@@?$tuple@$$V@std@@QEAA@U_Exact_args_t@1@@Z
	??$?0U_Exact_args_t@std@@AEAPEAVcallback@mqtt@@AEAV?$shared_ptr@Vdelivery_token@mqtt@@@1@$0A@@?$tuple@PEAVcallback@mqtt@@V?$shared_ptr@Vdelivery_token@mqtt@@@std@@@std@@QEAA@U_Exact_args_t@1@AEAPEAVcallback@mqtt@@AEAV?$shared_ptr@Vdelivery_token@mqtt@@@1@@Z
	??$?0U_Exact_args_t@std@@AEAPEAVcallback@mqtt@@AEBV?$basic_string@DU?$char_traits@D@std@@V?$allocator@D@2@@1@$0A@@?$tuple@PEAVcallback@mqtt@@V?$basic_string@DU?$char_traits@D@std@@V?$allocator@D@2@@std@@@std@@QEAA@U_Exact_args_t@1@AEAPEAVcallback@mqtt@@AEBV?$basic_string@DU?$char_traits@D@std@@V?$allocator@D@2@@1@@Z
	??$?0U_Exact_args_t@std@@AEAV?$shared_ptr@Vdelivery_token@mqtt@@@1@$$V$0A@@?$tuple@V?$shared_ptr@Vdelivery_token@mqtt@@@std@@@std@@QEAA@U_Exact_args_t@1@AEAV?$shared_ptr@Vdelivery_token@mqtt@@@1@@Z
	??$?0U_Exact_args_t@std@@AEAVexception_ptr@1@$$V$0A@@?$tuple@AEAVexception_ptr@std@@@std@@QEAA@U_Exact_args_t@1@AEAVexception_ptr@1@@Z
	??$?0U_Exact_args_t@std@@AEBV?$basic_string@DU?$char_traits@D@std@@V?$allocator@D@2@@1@$$V$0A@@?$tuple@V?$basic_string@DU?$char_traits@D@std@@V?$allocator@D@2@@std@@@std@@QEAA@U_Exact_args_t@1@AEBV?$basic_string@DU?$char_traits@D@std@@V?$allocator@D@2@@1@@Z
	??$?0U_Exact_args_t@std@@P8callback@mqtt@@EAAXAEBV?$basic_string@DU?$char_traits@D@std@@V?$allocator@D@2@@1@@ZAEAPEAV23@AEBV41@$0A@@?$tuple@P8callback@mqtt@@EAAXAEBV?$basic_string@DU?$char_traits@D@std@@V?$allocator@D@2@@std@@@ZPEAV12@V34@@std@@QEAA@U_Exact_args_t@1@$$QEAP8callback@mqtt@@EAAXAEBV?$basic_string@DU?$char_traits@D@std@@V?$allocator@D@2@@1@@ZAEAPEAV34@1@Z
	??$?0U_Exact_args_t@std@@P8callback@mqtt@@EAAXV?$shared_ptr@Vdelivery_token@mqtt@@@1@@ZAEAPEAV23@AEAV41@$0A@@?$tuple@P8callback@mqtt@@EAAXV?$shared_ptr@Vdelivery_token@mqtt@@@std@@@ZPEAV12@V34@@std@@QEAA@U_Exact_args_t@1@$$QEAP8callback@mqtt@@EAAXV?$shared_ptr@Vdelivery_token@mqtt@@@1@@ZAEAPEAV34@AEAV51@@Z
	??$?0U_Exact_args_t@std@@V<lambda_0e64988457575224279dcb6d61e61bdd>@@AEAVexception_ptr@1@$0A@@?$tuple@$$QEAV<lambda_0e64988457575224279dcb6d61e61bdd>@@AEAVexception_ptr@std@@@std@@QEAA@U_Exact_args_t@1@$$QEAV<lambda_0e64988457575224279dcb6d61e61bdd>@@AEAVexception_ptr@1@@Z
	??$?0V<lambda_052e919cc0e5399df76dff3972c0cac1>@@X@?$_Func_impl_no_alloc@V<lambda_052e919cc0e5399df76dff3972c0cac1>@@E$$V@std@@QEAA@$$QEAV<lambda_052e919cc0e5399df76dff3972c0cac1>@@@Z
	??$?0V<lambda_052e919cc0e5399df76dff3972c0cac1>@@X@?$function@$$A6AEXZ@std@@QEAA@V<lambda_052e919cc0e5399df76dff3972c0cac1>@@@Z
	??$?0V<lambda_0e64988457575224279dcb6d61e61bdd>@@@?$_Tuple_val@$$QEAV<lambda_0e64988457575224279dcb6d61e61bdd>@@@std@@QEAA@$$QEAV<lambda_0e64988457575224279dcb6d61e61bdd>@@@Z
	??$?0V<lambda_0e64988457575224279dcb6d61e61bdd>@@AEAVexception_ptr@std@@$0A@@?$tuple@$$QEAV<lambda_0e64988457575224279dcb6d61e61bdd>@@AEAVexception_ptr@std@@@std@@QEAA@$$QEAV<lambda_0e64988457575224279dcb6d61e61bdd>@@AEAVexception_ptr@1@@Z
	??$?0V<lambda_16db0a518715f6321653a25f2424e302>@@@?$task@X@Concurrency@@QEAA@V<lambda_16db0a518715f6321653a25f2424e302>@@AEBVtask_options@1@@Z
	??$?0V<lambda_16db0a518715f6321653a25f2424e302>@@X@?$_Func_impl_no_alloc@V<lambda_16db0a518715f6321653a25f2424e302>@@X$$V@std@@QEAA@$$QEAV<lambda_16db0a518715f6321653a25f2424e302>@@@Z
	??$?0V<lambda_16db0a518715f6321653a25f2424e302>@@X@?$function@$$A6AXXZ@std@@QEAA@V<lambda_16db0a518715f6321653a25f2424e302>@@@Z
	??$?0V<lambda_4d9f54b62c80a46497c8ee29775a19d4>@@AEAPEAVstring_collection@mqtt@@@?$_Compressed_pair@V<lambda_4d9f54b62c80a46497c8ee29775a19d4>@@PEAVstring_collection@mqtt@@$00@std@@QEAA@U_One_then_variadic_args_t@1@$$QEAV<lambda_4d9f54b62c80a46497c8ee29775a19d4>@@AEAPEAVstring_collection@mqtt@@@Z
	??$?0V<lambda_682f2f383c70f45f1f9b18ee8e8227fb>@@AEAPEAVmessage@mqtt@@@?$_Compressed_pair@V<lambda_682f2f383c70f45f1f9b18ee8e8227fb>@@PEAVmessage@mqtt@@$00@std@@QEAA@U_One_then_variadic_args_t@1@$$QEAV<lambda_682f2f383c70f45f1f9b18ee8e8227fb>@@AEAPEAVmessage@mqtt@@@Z
	??$?0V<lambda_713ee8bbd6b08550d59c52695cab5ce3>@@X@?$_Func_impl_no_alloc@V<lambda_713ee8bbd6b08550d59c52695cab5ce3>@@X$$V@std@@QEAA@$$QEAV<lambda_713ee8bbd6b08550d59c52695cab5ce3>@@@Z
	??$?0V<lambda_713ee8bbd6b08550d59c52695cab5ce3>@@X@?$function@$$A6AXXZ@std@@QEAA@V<lambda_713ee8bbd6b08550d59c52695cab5ce3>@@@Z
	??$?0V<lambda_763529b0c7473cbc215a52d189ac9b18>@@X@?$_Func_impl_no_alloc@V<lambda_763529b0c7473cbc215a52d189ac9b18>@@X$$V@std@@QEAA@$$QEAV<lambda_763529b0c7473cbc215a52d189ac9b18>@@@Z
	??$?0V<lambda_763529b0c7473cbc215a52d189ac9b18>@@X@?$function@$$A6AXXZ@std@@QEAA@V<lambda_763529b0c7473cbc215a52d189ac9b18>@@@Z
	??$?0V<lambda_a28169bf5ada89786cdd03ccb91074b7>@@@?$task@X@Concurrency@@QEAA@V<lambda_a28169bf5ada89786cdd03ccb91074b7>@@AEBVtask_options@1@@Z
	??$?0V<lambda_a28169bf5ada89786cdd03ccb91074b7>@@X@?$_Func_impl_no_alloc@V<lambda_a28169bf5ada89786cdd03ccb91074b7>@@X$$V@std@@QEAA@$$QEAV<lambda_a28169bf5ada89786cdd03ccb91074b7>@@@Z
	??$?0V<lambda_a28169bf5ada89786cdd03ccb91074b7>@@X@?$function@$$A6AXXZ@std@@QEAA@V<lambda_a28169bf5ada89786cdd03ccb91074b7>@@@Z
	??$?0V<lambda_f25c37099038263181b5186a3fa41b37>@@X@?$_Func_impl_no_alloc@V<lambda_f25c37099038263181b5186a3fa41b37>@@X$$V@std@@QEAA@$$QEAV<lambda_f25c37099038263181b5186a3fa41b37>@@@Z
	??$?0V<lambda_f25c37099038263181b5186a3fa41b37>@@X@?$function@$$A6AXXZ@std@@QEAA@V<lambda_f25c37099038263181b5186a3fa41b37>@@@Z
	??$?0V?$_Fake_no_copy_callable_adapter@P8callback@mqtt@@EAAXAEBV?$basic_string@DU?$char_traits@D@std@@V?$allocator@D@2@@std@@@ZAEAPEAV12@AEBV34@@std@@@?$_Deferred_async_state@X@std@@QEAA@$$QEAV?$_Fake_no_copy_callable_adapter@P8callback@mqtt@@EAAXAEBV?$basic_string@DU?$char_traits@D@std@@V?$allocator@D@2@@std@@@ZAEAPEAV12@AEBV34@@1@@Z
	??$?0V?$_Fake_no_copy_callable_adapter@P8callback@mqtt@@EAAXAEBV?$basic_string@DU?$char_traits@D@std@@V?$allocator@D@2@@std@@@ZAEAPEAV12@AEBV34@@std@@@?$_Packaged_state@$$A6AXXZ@std@@QEAA@$$QEAV?$_Fake_no_copy_callable_adapter@P8callback@mqtt@@EAAXAEBV?$basic_string@DU?$char_traits@D@std@@V?$allocator@D@2@@std@@@ZAEAPEAV12@AEBV34@@1@@Z
	??$?0V?$_Fake_no_copy_callable_adapter@P8callback@mqtt@@EAAXAEBV?$basic_string@DU?$char_traits@D@std@@V?$allocator@D@2@@std@@@ZAEAPEAV12@AEBV34@@std@@@?$_Task_async_state@X@std@@QEAA@$$QEAV?$_Fake_no_copy_callable_adapter@P8callback@mqtt@@EAAXAEBV?$basic_string@DU?$char_traits@D@std@@V?$allocator@D@2@@std@@@ZAEAPEAV12@AEBV34@@1@@Z
	??$?0V?$_Fake_no_copy_callable_adapter@P8callback@mqtt@@EAAXAEBV?$basic_string@DU?$char_traits@D@std@@V?$allocator@D@2@@std@@@ZAEAPEAV12@AEBV34@@std@@X@?$_Func_impl_no_alloc@V?$_Fake_no_copy_callable_adapter@P8callback@mqtt@@EAAXAEBV?$basic_string@DU?$char_traits@D@std@@V?$allocator@D@2@@std@@@ZAEAPEAV12@AEBV34@@std@@X$$V@std@@QEAA@$$QEAV?$_Fake_no_copy_callable_adapter@P8callback@mqtt@@EAAXAEBV?$basic_string@DU?$char_traits@D@std@@V?$allocator@D@2@@std@@@ZAEAPEAV12@AEBV34@@1@@Z
	??$?0V?$_Fake_no_copy_callable_adapter@P8callback@mqtt@@EAAXAEBV?$basic_string@DU?$char_traits@D@std@@V?$allocator@D@2@@std@@@ZAEAPEAV12@AEBV34@@std@@X@?$function@$$A6AXXZ@std@@QEAA@V?$_Fake_no_copy_callable_adapter@P8callback@mqtt@@EAAXAEBV?$basic_string@DU?$char_traits@D@std@@V?$allocator@D@2@@std@@@ZAEAPEAV12@AEBV34@@1@@Z
	??$?0V?$_Fake_no_copy_callable_adapter@P8callback@mqtt@@EAAXV?$shared_ptr@Vdelivery_token@mqtt@@@std@@@ZAEAPEAV12@AEAV34@@std@@@?$_Deferred_async_state@X@std@@QEAA@$$QEAV?$_Fake_no_copy_callable_adapter@P8callback@mqtt@@EAAXV?$shared_ptr@Vdelivery_token@mqtt@@@std@@@ZAEAPEAV12@AEAV34@@1@@Z
	??$?0V?$_Fake_no_copy_callable_adapter@P8callback@mqtt@@EAAXV?$shared_ptr@Vdelivery_token@mqtt@@@std@@@ZAEAPEAV12@AEAV34@@std@@@?$_Packaged_state@$$A6AXXZ@std@@QEAA@$$QEAV?$_Fake_no_copy_callable_adapter@P8callback@mqtt@@EAAXV?$shared_ptr@Vdelivery_token@mqtt@@@std@@@ZAEAPEAV12@AEAV34@@1@@Z
	??$?0V?$_Fake_no_copy_callable_adapter@P8callback@mqtt@@EAAXV?$shared_ptr@Vdelivery_token@mqtt@@@std@@@ZAEAPEAV12@AEAV34@@std@@@?$_Task_async_state@X@std@@QEAA@$$QEAV?$_Fake_no_copy_callable_adapter@P8callback@mqtt@@EAAXV?$shared_ptr@Vdelivery_token@mqtt@@@std@@@ZAEAPEAV12@AEAV34@@1@@Z
	??$?0V?$_Fake_no_copy_callable_adapter@P8callback@mqtt@@EAAXV?$shared_ptr@Vdelivery_token@mqtt@@@std@@@ZAEAPEAV12@AEAV34@@std@@X@?$_Func_impl_no_alloc@V?$_Fake_no_copy_callable_adapter@P8callback@mqtt@@EAAXV?$shared_ptr@Vdelivery_token@mqtt@@@std@@@ZAEAPEAV12@AEAV34@@std@@X$$V@std@@QEAA@$$QEAV?$_Fake_no_copy_callable_adapter@P8callback@mqtt@@EAAXV?$shared_ptr@Vdelivery_token@mqtt@@@std@@@ZAEAPEAV12@AEAV34@@1@@Z
	??$?0V?$_Fake_no_copy_callable_adapter@P8callback@mqtt@@EAAXV?$shared_ptr@Vdelivery_token@mqtt@@@std@@@ZAEAPEAV12@AEAV34@@std@@X@?$function@$$A6AXXZ@std@@QEAA@V?$_Fake_no_copy_callable_adapter@P8callback@mqtt@@EAAXV?$shared_ptr@Vdelivery_token@mqtt@@@std@@@ZAEAPEAV12@AEAV34@@1@@Z
	??$?0V?$allocator@D@std@@$$V@?$_Compressed_pair@V?$allocator@D@std@@V?$_String_val@U?$_Simple_types@D@std@@@2@$00@std@@QEAA@U_One_then_variadic_args_t@1@$$QEAV?$allocator@D@1@@Z
	??$?0V?$allocator@PEAX@std@@$$V@?$_Compressed_pair@V?$allocator@PEAX@std@@V?$_Vector_val@U?$_Simple_types@PEAX@std@@@2@$00@std@@QEAA@U_One_then_variadic_args_t@1@$$QEAV?$allocator@PEAX@1@@Z
	??$?0V?$allocator@V?$basic_string@DU?$char_traits@D@std@@V?$allocator@D@2@@std@@@std@@$$V@?$_Compressed_pair@V?$allocator@V?$basic_string@DU?$char_traits@D@std@@V?$allocator@D@2@@std@@@std@@V?$_Vector_val@U?$_Simple_types@V?$basic_string@DU?$char_traits@D@std@@V?$allocator@D@2@@std@@@std@@@2@$00@std@@QEAA@U_One_then_variadic_args_t@1@$$QEAV?$allocator@V?$basic_string@DU?$char_traits@D@std@@V?$allocator@D@2@@std@@@1@@Z
	??$?0V?$allocator@V?$shared_ptr@Vdelivery_token@mqtt@@@std@@@std@@$$V@?$_Compressed_pair@V?$allocator@V?$shared_ptr@Vdelivery_token@mqtt@@@std@@@std@@V?$_Vector_val@U?$_Simple_types@V?$shared_ptr@Vdelivery_token@mqtt@@@std@@@std@@@2@$00@std@@QEAA@U_One_then_variadic_args_t@1@$$QEAV?$allocator@V?$shared_ptr@Vdelivery_token@mqtt@@@std@@@1@@Z
	??$?0V?$allocator@W4ReasonCode@mqtt@@@std@@$$V@?$_Compressed_pair@V?$allocator@W4ReasonCode@mqtt@@@std@@V?$_Vector_val@U?$_Simple_types@W4ReasonCode@mqtt@@@std@@@2@$00@std@@QEAA@U_One_then_variadic_args_t@1@$$QEAV?$allocator@W4ReasonCode@mqtt@@@1@@Z
	??$?0V?$basic_string@DU?$char_traits@D@std@@V?$allocator@D@2@@std@@$0A@@?$shared_ptr@$$CBV?$basic_string@DU?$char_traits@D@std@@V?$allocator@D@2@@std@@@std@@QEAA@$$QEAV?$shared_ptr@V?$basic_string@DU?$char_traits@D@std@@V?$allocator@D@2@@std@@@1@@Z
	??$?0V?$basic_string@DU?$char_traits@D@std@@V?$allocator@D@2@@std@@@?$_Ref_count_obj@V?$basic_string@DU?$char_traits@D@std@@V?$allocator@D@2@@std@@@std@@QEAA@$$QEAV?$basic_string@DU?$char_traits@D@std@@V?$allocator@D@2@@1@@Z
	??$?0V?$basic_string@DU?$char_traits@D@std@@V?$allocator@D@2@@std@@@?$allocator@U_Container_proxy@std@@@std@@QEAA@AEBV?$allocator@V?$basic_string@DU?$char_traits@D@std@@V?$allocator@D@2@@std@@@1@@Z
	??$?0V?$buffer_ref@D@mqtt@@AEAPEBXAEA_KAEAHAEA_N@?$_Ref_count_obj@Vmessage@mqtt@@@std@@QEAA@$$QEAV?$buffer_ref@D@mqtt@@AEAPEBXAEA_KAEAHAEA_N@Z
	??$?0V?$buffer_ref@D@mqtt@@AEBUMQTTAsync_message@@@?$_Ref_count_obj@Vmessage@mqtt@@@std@@QEAA@$$QEAV?$buffer_ref@D@mqtt@@AEBUMQTTAsync_message@@@Z
	??$?0V?$buffer_ref@D@mqtt@@V01@AEAHAEA_N@?$_Ref_count_obj@Vmessage@mqtt@@@std@@QEAA@$$QEAV?$buffer_ref@D@mqtt@@0AEAHAEA_N@Z
	??$?0V?$buffer_view@D@mqtt@@@?$allocator@U_Container_proxy@std@@@std@@QEAA@AEBV?$allocator@V?$buffer_view@D@mqtt@@@1@@Z
	??$?0V?$shared_ptr@$$CBVmessage@mqtt@@@std@@@?$allocator@PEAV?$shared_ptr@$$CBVmessage@mqtt@@@std@@@std@@QEAA@AEBV?$allocator@V?$shared_ptr@$$CBVmessage@mqtt@@@std@@@1@@Z
	??$?0V?$shared_ptr@$$CBVmessage@mqtt@@@std@@@?$allocator@U_Container_proxy@std@@@std@@QEAA@AEBV?$allocator@V?$shared_ptr@$$CBVmessage@mqtt@@@std@@@1@@Z
	??$?0V?$shared_ptr@Vdelivery_token@mqtt@@@std@@@?$allocator@U_Container_proxy@std@@@std@@QEAA@AEBV?$allocator@V?$shared_ptr@Vdelivery_token@mqtt@@@std@@@1@@Z
	??$?0Vdelivery_token@mqtt@@$0A@@?$weak_ptr@Vdelivery_token@mqtt@@@std@@QEAA@AEBV?$shared_ptr@Vdelivery_token@mqtt@@@1@@Z
	??$?0Vmessage@mqtt@@$0A@@?$shared_ptr@$$CBVmessage@mqtt@@@std@@QEAA@$$QEAV?$shared_ptr@Vmessage@mqtt@@@1@@Z
	??$?0Vmessage@mqtt@@$0A@@?$shared_ptr@$$CBVmessage@mqtt@@@std@@QEAA@AEBV?$shared_ptr@Vmessage@mqtt@@@1@@Z
	??$?0Vmessage@mqtt@@V<lambda_682f2f383c70f45f1f9b18ee8e8227fb>@@$0A@@?$shared_ptr@Vmessage@mqtt@@@std@@QEAA@PEAVmessage@mqtt@@V<lambda_682f2f383c70f45f1f9b18ee8e8227fb>@@@Z
	??$?0Vstring_collection@mqtt@@$0A@@?$shared_ptr@$$CBVstring_collection@mqtt@@@std@@QEAA@$$QEAV?$shared_ptr@Vstring_collection@mqtt@@@1@@Z
	??$?0Vstring_collection@mqtt@@V<lambda_4d9f54b62c80a46497c8ee29775a19d4>@@$0A@@?$shared_ptr@Vstring_collection@mqtt@@@std@@QEAA@PEAVstring_collection@mqtt@@V<lambda_4d9f54b62c80a46497c8ee29775a19d4>@@@Z
	??$?0Vsubscribe_options@mqtt@@@?$allocator@U_Container_proxy@std@@@std@@QEAA@AEBV?$allocator@Vsubscribe_options@mqtt@@@1@@Z
	??$?0Vtoken@mqtt@@$0A@@?$weak_ptr@Vtoken@mqtt@@@std@@QEAA@AEBV?$shared_ptr@Vtoken@mqtt@@@1@@Z
	??$?0W4ReasonCode@mqtt@@@?$allocator@U_Container_proxy@std@@@std@@QEAA@AEBV?$allocator@W4ReasonCode@mqtt@@@1@@Z
	??$?0_JU?$ratio@$00$00@std@@X@?$duration@_JU?$ratio@$00$0DLJKMKAA@@std@@@chrono@std@@QEAA@AEBV?$duration@_JU?$ratio@$00$00@std@@@12@@Z
	??$?0_JU?$ratio@$00$0DLJKMKAA@@std@@X@?$duration@NU?$ratio@$00$0DLJKMKAA@@std@@@chrono@std@@QEAA@AEBV?$duration@_JU?$ratio@$00$0DLJKMKAA@@std@@@12@@Z
	??$?0_JU?$ratio@$00$0DOI@@std@@X@?$duration@_JU?$ratio@$00$0DLJKMKAA@@std@@@chrono@std@@QEAA@AEBV?$duration@_JU?$ratio@$00$0DOI@@std@@@12@@Z
	??$?0_JU?$ratio@$00$0JIJGIA@@std@@X@?$duration@_JU?$ratio@$00$0DLJKMKAA@@std@@@chrono@std@@QEAA@AEBV?$duration@_JU?$ratio@$00$0JIJGIA@@std@@@12@@Z
	??$?0_JX@?$duration@_JU?$ratio@$00$00@std@@@chrono@std@@QEAA@AEB_J@Z
	??$?0_JX@?$duration@_JU?$ratio@$00$0DLJKMKAA@@std@@@chrono@std@@QEAA@AEB_J@Z
	??$?0_JX@?$duration@_JU?$ratio@$00$0DOI@@std@@@chrono@std@@QEAA@AEB_J@Z
	??$?0_JX@?$duration@_JU?$ratio@$00$0JIJGIA@@std@@@chrono@std@@QEAA@AEB_J@Z
	??$?4Vdelivery_token@mqtt@@@?$weak_ptr@Vdelivery_token@mqtt@@@std@@QEAAAEAV01@AEBV?$shared_ptr@Vdelivery_token@mqtt@@@1@@Z
	??$?4Vtoken@mqtt@@@?$weak_ptr@Vtoken@mqtt@@@std@@QEAAAEAV01@AEBV?$shared_ptr@Vtoken@mqtt@@@1@@Z
	??$?9U_Task_impl_base@details@Concurrency@@@std@@YA_NAEBV?$shared_ptr@U_Task_impl_base@details@Concurrency@@@0@$$T@Z
	??$?C$$CBV?$basic_string@DU?$char_traits@D@std@@V?$allocator@D@2@@std@@$0A@@?$shared_ptr@$$CBV?$basic_string@DU?$char_traits@D@std@@V?$allocator@D@2@@std@@@std@@QEBAPEBV?$basic_string@DU?$char_traits@D@std@@V?$allocator@D@2@@1@XZ
	??$?C$$CBVmessage@mqtt@@$0A@@?$shared_ptr@$$CBVmessage@mqtt@@@std@@QEBAPEBVmessage@mqtt@@XZ
	??$?C$$CBVstring_collection@mqtt@@$0A@@?$shared_ptr@$$CBVstring_collection@mqtt@@@std@@QEBAPEBVstring_collection@mqtt@@XZ
	??$?CU?$_Task_impl@E@details@Concurrency@@$0A@@?$shared_ptr@U?$_Task_impl@E@details@Concurrency@@@std@@QEBAPEAU?$_Task_impl@E@details@Concurrency@@XZ
	??$?CU_ExceptionHolder@details@Concurrency@@$0A@@?$shared_ptr@U_ExceptionHolder@details@Concurrency@@@std@@QEBAPEAU_ExceptionHolder@details@Concurrency@@XZ
	??$?CU_Task_impl_base@details@Concurrency@@$0A@@?$shared_ptr@U_Task_impl_base@details@Concurrency@@@std@@QEBAPEAU_Task_impl_base@details@Concurrency@@XZ
	??$?CUscheduler_interface@Concurrency@@$0A@@?$shared_ptr@Uscheduler_interface@Concurrency@@@std@@QEBAPEAUscheduler_interface@Concurrency@@XZ
	??$?CVdelivery_token@mqtt@@$0A@@?$shared_ptr@Vdelivery_token@mqtt@@@std@@QEBAPEAVdelivery_token@mqtt@@XZ
	??$?CVtoken@mqtt@@$0A@@?$shared_ptr@Vtoken@mqtt@@@std@@QEBAPEAVtoken@mqtt@@XZ
	??$?D$$CBV?$basic_string@DU?$char_traits@D@std@@V?$allocator@D@2@@std@@$0A@@?$shared_ptr@$$CBV?$basic_string@DU?$char_traits@D@std@@V?$allocator@D@2@@std@@@std@@QEBAAEBV?$basic_string@DU?$char_traits@D@std@@V?$allocator@D@2@@1@XZ
	??$?GUsteady_clock@chrono@std@@V?$duration@_JU?$ratio@$00$0DLJKMKAA@@std@@@12@V312@@chrono@std@@YA?AV?$duration@_JU?$ratio@$00$0DLJKMKAA@@std@@@01@AEBV?$time_point@Usteady_clock@chrono@std@@V?$duration@_JU?$ratio@$00$0DLJKMKAA@@std@@@23@@01@0@Z
	??$?G_JU?$ratio@$00$0DLJKMKAA@@std@@_JU01@@chrono@std@@YA?AV?$duration@_JU?$ratio@$00$0DLJKMKAA@@std@@@01@AEBV201@0@Z
	??$?HDU?$char_traits@D@std@@V?$allocator@D@1@@std@@YA?AV?$basic_string@DU?$char_traits@D@std@@V?$allocator@D@2@@0@$$QEAV10@0@Z
	??$?HDU?$char_traits@D@std@@V?$allocator@D@1@@std@@YA?AV?$basic_string@DU?$char_traits@D@std@@V?$allocator@D@2@@0@$$QEAV10@AEBV10@@Z
	??$?HDU?$char_traits@D@std@@V?$allocator@D@1@@std@@YA?AV?$basic_string@DU?$char_traits@D@std@@V?$allocator@D@2@@0@$$QEAV10@QEBD@Z
	??$?HDU?$char_traits@D@std@@V?$allocator@D@1@@std@@YA?AV?$basic_string@DU?$char_traits@D@std@@V?$allocator@D@2@@0@QEBD$$QEAV10@@Z
	??$?HDU?$char_traits@D@std@@V?$allocator@D@1@@std@@YA?AV?$basic_string@DU?$char_traits@D@std@@V?$allocator@D@2@@0@QEBDAEBV10@@Z
	??$?HUsteady_clock@chrono@std@@V?$duration@_JU?$ratio@$00$0DLJKMKAA@@std@@@12@_JU?$ratio@$00$0DOI@@2@@chrono@std@@YA?AV?$time_point@Usteady_clock@chrono@std@@V?$duration@_JU?$ratio@$00$0DLJKMKAA@@std@@@23@@01@AEBV201@AEBV?$duration@_JU?$ratio@$00$0DOI@@std@@@01@@Z
	??$?H_JU?$ratio@$00$0DLJKMKAA@@std@@_JU?$ratio@$00$0DOI@@1@@chrono@std@@YA?AV?$duration@_JU?$ratio@$00$0DLJKMKAA@@std@@@01@AEBV201@AEBV?$duration@_JU?$ratio@$00$0DOI@@std@@@01@@Z
	??$?MNU?$ratio@$00$00@std@@_JU?$ratio@$00$0DLJKMKAA@@1@@chrono@std@@YA_NAEBV?$duration@NU?$ratio@$00$00@std@@@01@AEBV?$duration@_JU?$ratio@$00$0DLJKMKAA@@std@@@01@@Z
	??$?MUsteady_clock@chrono@std@@V?$duration@_JU?$ratio@$00$0DLJKMKAA@@std@@@12@V312@@chrono@std@@YA_NAEBV?$time_point@Usteady_clock@chrono@std@@V?$duration@_JU?$ratio@$00$0DLJKMKAA@@std@@@23@@01@0@Z
	??$?M_JU?$ratio@$00$0DLJKMKAA@@std@@_JU01@@chrono@std@@YA_NAEBV?$duration@_JU?$ratio@$00$0DLJKMKAA@@std@@@01@0@Z
	??$?NUsteady_clock@chrono@std@@V?$duration@_JU?$ratio@$00$0DLJKMKAA@@std@@@12@V312@@chrono@std@@YA_NAEBV?$time_point@Usteady_clock@chrono@std@@V?$duration@_JU?$ratio@$00$0DLJKMKAA@@std@@@23@@01@0@Z
	??$_Adl_verify_range@PEADPEAD@std@@YAXAEBQEAD0@Z
	??$_Adl_verify_range@PEAPEAXPEAPEAX@std@@YAXAEBQEAPEAX0@Z
	??$_Adl_verify_range@PEAV?$basic_string@DU?$char_traits@D@std@@V?$allocator@D@2@@std@@PEAV12@@std@@YAXAEBQEAV?$basic_string@DU?$char_traits@D@std@@V?$allocator@D@2@@0@0@Z
	??$_Alloc_proxy@V?$allocator@U_Container_proxy@std@@@std@@@_Container_base12@std@@QEAAX$$QEAV?$allocator@U_Container_proxy@std@@@1@@Z
	??$_Allocate@$0BA@U_Default_allocate_traits@std@@$0A@@std@@YAPEAX_K@Z
	??$_Allocate@AEBV?$shared_ptr@Vdelivery_token@mqtt@@@std@@$0A@@?$_List_node_emplace_op@V?$allocator@U?$_List_node@V?$shared_ptr@Vdelivery_token@mqtt@@@std@@PEAX@std@@@std@@@std@@QEAAAEAV?$shared_ptr@Vdelivery_token@mqtt@@@1@AEBV21@@Z
	??$_Allocate@AEBV?$shared_ptr@Vtoken@mqtt@@@std@@$0A@@?$_List_node_emplace_op@V?$allocator@U?$_List_node@V?$shared_ptr@Vtoken@mqtt@@@std@@PEAX@std@@@std@@@std@@QEAAAEAV?$shared_ptr@Vtoken@mqtt@@@1@AEBV21@@Z
	??$_Allocate_manually_vector_aligned@U_Default_allocate_traits@std@@@std@@YAPEAX_K@Z
	??$_Assign_range@PEAPEAX@?$vector@PEAXV?$allocator@PEAX@std@@@std@@AEAAXPEAPEAX0Uforward_iterator_tag@1@@Z
	??$_Assign_range@PEAV?$basic_string@DU?$char_traits@D@std@@V?$allocator@D@2@@std@@@?$vector@V?$basic_string@DU?$char_traits@D@std@@V?$allocator@D@2@@std@@V?$allocator@V?$basic_string@DU?$char_traits@D@std@@V?$allocator@D@2@@std@@@2@@std@@AEAAXPEAV?$basic_string@DU?$char_traits@D@std@@V?$allocator@D@2@@1@0Uforward_iterator_tag@1@@Z
	??$_Atomic_address_as@$$CBJ$$CBU?$_Atomic_padded@J@std@@@std@@YAPEDJAEBU?$_Atomic_padded@J@0@@Z
	??$_Atomic_address_as@$$CBJ$$CCJ@std@@YAPEDJAECJ@Z
	??$_Atomic_address_as@JU?$_Atomic_padded@J@std@@@std@@YAPECJAEAU?$_Atomic_padded@J@0@@Z
	??$_Atomic_reinterpret_as@JJ@std@@YAJAEBJ@Z
	??$_Call@AEAV<lambda_052e919cc0e5399df76dff3972c0cac1>@@$$V@_Invoker_functor@std@@SAEAEAV<lambda_052e919cc0e5399df76dff3972c0cac1>@@@Z
	??$_Call@AEAV<lambda_052e919cc0e5399df76dff3972c0cac1>@@@?$_Invoker_ret@E$0A@@std@@SAEAEAV<lambda_052e919cc0e5399df76dff3972c0cac1>@@@Z
	??$_Call@AEAV<lambda_16db0a518715f6321653a25f2424e302>@@$$V@_Invoker_functor@std@@SAXAEAV<lambda_16db0a518715f6321653a25f2424e302>@@@Z
	??$_Call@AEAV<lambda_16db0a518715f6321653a25f2424e302>@@@?$_Invoker_ret@X$00@std@@SAXAEAV<lambda_16db0a518715f6321653a25f2424e302>@@@Z
	??$_Call@AEAV<lambda_713ee8bbd6b08550d59c52695cab5ce3>@@$$V@_Invoker_functor@std@@SAXAEAV<lambda_713ee8bbd6b08550d59c52695cab5ce3>@@@Z
	??$_Call@AEAV<lambda_713ee8bbd6b08550d59c52695cab5ce3>@@@?$_Invoker_ret@X$00@std@@SAXAEAV<lambda_713ee8bbd6b08550d59c52695cab5ce3>@@@Z
	??$_Call@AEAV<lambda_763529b0c7473cbc215a52d189ac9b18>@@$$V@_Invoker_functor@std@@SAXAEAV<lambda_763529b0c7473cbc215a52d189ac9b18>@@@Z
	??$_Call@AEAV<lambda_763529b0c7473cbc215a52d189ac9b18>@@@?$_Invoker_ret@X$00@std@@SAXAEAV<lambda_763529b0c7473cbc215a52d189ac9b18>@@@Z
	??$_Call@AEAV<lambda_a28169bf5ada89786cdd03ccb91074b7>@@$$V@_Invoker_functor@std@@SAXAEAV<lambda_a28169bf5ada89786cdd03ccb91074b7>@@@Z
	??$_Call@AEAV<lambda_a28169bf5ada89786cdd03ccb91074b7>@@@?$_Invoker_ret@X$00@std@@SAXAEAV<lambda_a28169bf5ada89786cdd03ccb91074b7>@@@Z
	??$_Call@AEAV<lambda_f25c37099038263181b5186a3fa41b37>@@$$V@_Invoker_functor@std@@SAXAEAV<lambda_f25c37099038263181b5186a3fa41b37>@@@Z
	??$_Call@AEAV<lambda_f25c37099038263181b5186a3fa41b37>@@@?$_Invoker_ret@X$00@std@@SAXAEAV<lambda_f25c37099038263181b5186a3fa41b37>@@@Z
	??$_Call@AEAV?$_Fake_no_copy_callable_adapter@P8callback@mqtt@@EAAXAEBV?$basic_string@DU?$char_traits@D@std@@V?$allocator@D@2@@std@@@ZAEAPEAV12@AEBV34@@std@@$$V@_Invoker_functor@std@@SAXAEAV?$_Fake_no_copy_callable_adapter@P8callback@mqtt@@EAAXAEBV?$basic_string@DU?$char_traits@D@std@@V?$allocator@D@2@@std@@@ZAEAPEAV12@AEBV34@@1@@Z
	??$_Call@AEAV?$_Fake_no_copy_callable_adapter@P8callback@mqtt@@EAAXAEBV?$basic_string@DU?$char_traits@D@std@@V?$allocator@D@2@@std@@@ZAEAPEAV12@AEBV34@@std@@@?$_Invoker_ret@X$00@std@@SAXAEAV?$_Fake_no_copy_callable_adapter@P8callback@mqtt@@EAAXAEBV?$basic_string@DU?$char_traits@D@std@@V?$allocator@D@2@@std@@@ZAEAPEAV12@AEBV34@@1@@Z
	??$_Call@AEAV?$_Fake_no_copy_callable_adapter@P8callback@mqtt@@EAAXV?$shared_ptr@Vdelivery_token@mqtt@@@std@@@ZAEAPEAV12@AEAV34@@std@@$$V@_Invoker_functor@std@@SAXAEAV?$_Fake_no_copy_callable_adapter@P8callback@mqtt@@EAAXV?$shared_ptr@Vdelivery_token@mqtt@@@std@@@ZAEAPEAV12@AEAV34@@1@@Z
	??$_Call@AEAV?$_Fake_no_copy_callable_adapter@P8callback@mqtt@@EAAXV?$shared_ptr@Vdelivery_token@mqtt@@@std@@@ZAEAPEAV12@AEAV34@@std@@@?$_Invoker_ret@X$00@std@@SAXAEAV?$_Fake_no_copy_callable_adapter@P8callback@mqtt@@EAAXV?$shared_ptr@Vdelivery_token@mqtt@@@std@@@ZAEAPEAV12@AEAV34@@1@@Z
	??$_Call@P8callback@mqtt@@EAAXAEBV?$basic_string@DU?$char_traits@D@std@@V?$allocator@D@2@@std@@@ZPEAV12@V34@@_Invoker_pmf_pointer@std@@SAXP8callback@mqtt@@EAAXAEBV?$basic_string@DU?$char_traits@D@std@@V?$allocator@D@2@@1@@Z$$QEAPEAV23@$$QEAV41@@Z
	??$_Call@P8callback@mqtt@@EAAXV?$shared_ptr@Vdelivery_token@mqtt@@@std@@@ZPEAV12@V34@@_Invoker_pmf_pointer@std@@SAXP8callback@mqtt@@EAAXV?$shared_ptr@Vdelivery_token@mqtt@@@1@@Z$$QEAPEAV23@$$QEAV41@@Z
	??$_Call@V<lambda_0e64988457575224279dcb6d61e61bdd>@@$$V@_Invoker_functor@std@@SAX$$QEAV<lambda_0e64988457575224279dcb6d61e61bdd>@@@Z
	??$_Callback_once@V?$tuple@$$QEAV<lambda_0e64988457575224279dcb6d61e61bdd>@@AEAVexception_ptr@std@@@std@@U?$integer_sequence@_K$0A@@2@$00@std@@YAHPEAX0PEAPEAX@Z
	??$_Construct_from_weak@U_Task_impl_base@details@Concurrency@@@?$_Ptr_base@U_Task_impl_base@details@Concurrency@@@std@@IEAA_NAEBV?$weak_ptr@U_Task_impl_base@details@Concurrency@@@1@@Z
	??$_Convert_size@_K@std@@YA_K_K@Z
	??$_Copy_construct_from@$$CBV?$basic_string@DU?$char_traits@D@std@@V?$allocator@D@2@@std@@@?$_Ptr_base@$$CBV?$basic_string@DU?$char_traits@D@std@@V?$allocator@D@2@@std@@@std@@IEAAXAEBV?$shared_ptr@$$CBV?$basic_string@DU?$char_traits@D@std@@V?$allocator@D@2@@std@@@1@@Z
	??$_Copy_construct_from@$$CBVmessage@mqtt@@@?$_Ptr_base@$$CBVmessage@mqtt@@@std@@IEAAXAEBV?$shared_ptr@$$CBVmessage@mqtt@@@1@@Z
	??$_Copy_construct_from@$$CBVstring_collection@mqtt@@@?$_Ptr_base@$$CBVstring_collection@mqtt@@@std@@IEAAXAEBV?$shared_ptr@$$CBVstring_collection@mqtt@@@1@@Z
	??$_Copy_construct_from@U?$_Task_impl@E@details@Concurrency@@@?$_Ptr_base@U?$_Task_impl@E@details@Concurrency@@@std@@IEAAXAEBV?$shared_ptr@U?$_Task_impl@E@details@Concurrency@@@1@@Z
	??$_Copy_construct_from@U_ExceptionHolder@details@Concurrency@@@?$_Ptr_base@U_ExceptionHolder@details@Concurrency@@@std@@IEAAXAEBV?$shared_ptr@U_ExceptionHolder@details@Concurrency@@@1@@Z
	??$_Copy_construct_from@U_Task_impl_base@details@Concurrency@@@?$_Ptr_base@U_Task_impl_base@details@Concurrency@@@std@@IEAAXAEBV?$shared_ptr@U_Task_impl_base@details@Concurrency@@@1@@Z
	??$_Copy_construct_from@Uscheduler_interface@Concurrency@@@?$_Ptr_base@Uscheduler_interface@Concurrency@@@std@@IEAAXAEBV?$shared_ptr@Uscheduler_interface@Concurrency@@@1@@Z
	??$_Copy_construct_from@Vdelivery_token@mqtt@@@?$_Ptr_base@Vdelivery_token@mqtt@@@std@@IEAAXAEBV?$shared_ptr@Vdelivery_token@mqtt@@@1@@Z
	??$_Copy_construct_from@Vmessage@mqtt@@@?$_Ptr_base@$$CBVmessage@mqtt@@@std@@IEAAXAEBV?$shared_ptr@Vmessage@mqtt@@@1@@Z
	??$_Copy_construct_from@Vtoken@mqtt@@@?$_Ptr_base@Vtoken@mqtt@@@std@@IEAAXAEBV?$shared_ptr@Vtoken@mqtt@@@1@@Z
	??$_Copy_memmove@PEAHPEAH@std@@YAPEAHPEAH00@Z
	??$_Copy_memmove@PEAPEAV?$shared_ptr@$$CBVmessage@mqtt@@@std@@PEAPEAV12@@std@@YAPEAPEAV?$shared_ptr@$$CBVmessage@mqtt@@@0@PEAPEAV10@00@Z
	??$_Copy_memmove@PEAPEAXPEAPEAX@std@@YAPEAPEAXPEAPEAX00@Z
	??$_Copy_memmove@PEAPEBDPEAPEBD@std@@YAPEAPEBDPEAPEBD00@Z
	??$_Copy_memmove@PEAUMQTTSubscribe_options@@PEAU1@@std@@YAPEAUMQTTSubscribe_options@@PEAU1@00@Z
	??$_Copy_memmove@PEAW4ReasonCode@mqtt@@PEAW412@@std@@YAPEAW4ReasonCode@mqtt@@PEAW412@00@Z
	??$_Copy_unchecked@PEAV?$basic_string@DU?$char_traits@D@std@@V?$allocator@D@2@@std@@PEAV12@@std@@YAPEAV?$basic_string@DU?$char_traits@D@std@@V?$allocator@D@2@@0@PEAV10@00@Z
	??$_Deallocate@$07$0A@@std@@YAXPEAX_K@Z
	??$_Deallocate@$0BA@$0A@@std@@YAXPEAX_K@Z
	??$_Deallocate_plain@V?$allocator@U_Container_proxy@std@@@std@@@std@@YAXAEAV?$allocator@U_Container_proxy@std@@@0@QEAU_Container_proxy@0@@Z
	??$_Delete_plain@V?$allocator@U_Container_proxy@std@@@std@@@std@@YAXAEAV?$allocator@U_Container_proxy@std@@@0@QEAU_Container_proxy@0@@Z
	??$_Destroy_range@V?$allocator@H@std@@@std@@YAXPEAHQEAHAEAV?$allocator@H@0@@Z
	??$_Destroy_range@V?$allocator@PEAV?$shared_ptr@$$CBVmessage@mqtt@@@std@@@std@@@std@@YAXPEAPEAV?$shared_ptr@$$CBVmessage@mqtt@@@0@QEAPEAV10@AEAV?$allocator@PEAV?$shared_ptr@$$CBVmessage@mqtt@@@std@@@0@@Z
	??$_Destroy_range@V?$allocator@PEAX@std@@@std@@YAXPEAPEAXQEAPEAXAEAV?$allocator@PEAX@0@@Z
	??$_Destroy_range@V?$allocator@PEBD@std@@@std@@YAXPEAPEBDQEAPEBDAEAV?$allocator@PEBD@0@@Z
	??$_Destroy_range@V?$allocator@UMQTTSubscribe_options@@@std@@@std@@YAXPEAUMQTTSubscribe_options@@QEAU1@AEAV?$allocator@UMQTTSubscribe_options@@@0@@Z
	??$_Destroy_range@V?$allocator@V?$basic_string@DU?$char_traits@D@std@@V?$allocator@D@2@@std@@@std@@@std@@YAXPEAV?$basic_string@DU?$char_traits@D@std@@V?$allocator@D@2@@0@QEAV10@AEAV?$allocator@V?$basic_string@DU?$char_traits@D@std@@V?$allocator@D@2@@std@@@0@@Z
	??$_Destroy_range@V?$allocator@V?$buffer_view@D@mqtt@@@std@@@std@@YAXPEAV?$buffer_view@D@mqtt@@QEAV12@AEAV?$allocator@V?$buffer_view@D@mqtt@@@0@@Z
	??$_Destroy_range@V?$allocator@V?$shared_ptr@Vdelivery_token@mqtt@@@std@@@std@@@std@@YAXPEAV?$shared_ptr@Vdelivery_token@mqtt@@@0@QEAV10@AEAV?$allocator@V?$shared_ptr@Vdelivery_token@mqtt@@@std@@@0@@Z
	??$_Destroy_range@V?$allocator@Vsubscribe_options@mqtt@@@std@@@std@@YAXPEAVsubscribe_options@mqtt@@QEAV12@AEAV?$allocator@Vsubscribe_options@mqtt@@@0@@Z
	??$_Destroy_range@V?$allocator@W4ReasonCode@mqtt@@@std@@@std@@YAXPEAW4ReasonCode@mqtt@@QEAW412@AEAV?$allocator@W4ReasonCode@mqtt@@@0@@Z
	??$_Emplace_back@AEAV?$basic_string@DU?$char_traits@D@std@@V?$allocator@D@2@@std@@@?$_Uninitialized_backout_al@V?$allocator@V?$basic_string@DU?$char_traits@D@std@@V?$allocator@D@2@@std@@@std@@@std@@QEAAXAEAV?$basic_string@DU?$char_traits@D@std@@V?$allocator@D@2@@1@@Z
	??$_Emplace_back@AEBV?$basic_string@DU?$char_traits@D@std@@V?$allocator@D@2@@std@@@?$_Uninitialized_backout_al@V?$allocator@V?$basic_string@DU?$char_traits@D@std@@V?$allocator@D@2@@std@@@std@@@std@@QEAAXAEBV?$basic_string@DU?$char_traits@D@std@@V?$allocator@D@2@@1@@Z
	??$_Emplace_back@V?$basic_string@DU?$char_traits@D@std@@V?$allocator@D@2@@std@@@?$_Uninitialized_backout_al@V?$allocator@V?$basic_string@DU?$char_traits@D@std@@V?$allocator@D@2@@std@@@std@@@std@@QEAAX$$QEAV?$basic_string@DU?$char_traits@D@std@@V?$allocator@D@2@@1@@Z
	??$_Emplace_back@V?$buffer_view@D@mqtt@@@?$_Uninitialized_backout_al@V?$allocator@V?$buffer_view@D@mqtt@@@std@@@std@@QEAAX$$QEAV?$buffer_view@D@mqtt@@@Z
	??$_Emplace_back@V?$shared_ptr@Vdelivery_token@mqtt@@@std@@@?$_Uninitialized_backout_al@V?$allocator@V?$shared_ptr@Vdelivery_token@mqtt@@@std@@@std@@@std@@QEAAX$$QEAV?$shared_ptr@Vdelivery_token@mqtt@@@1@@Z
	??$_Emplace_back_with_unused_capacity@AEBH@?$vector@HV?$allocator@H@std@@@std@@AEAAXAEBH@Z
	??$_Emplace_back_with_unused_capacity@AEBUMQTTSubscribe_options@@@?$vector@UMQTTSubscribe_options@@V?$allocator@UMQTTSubscribe_options@@@std@@@std@@AEAAXAEBUMQTTSubscribe_options@@@Z
	??$_Emplace_back_with_unused_capacity@AEBV?$basic_string@DU?$char_traits@D@std@@V?$allocator@D@2@@std@@@?$vector@V?$basic_string@DU?$char_traits@D@std@@V?$allocator@D@2@@std@@V?$allocator@V?$basic_string@DU?$char_traits@D@std@@V?$allocator@D@2@@std@@@2@@std@@AEAAXAEBV?$basic_string@DU?$char_traits@D@std@@V?$allocator@D@2@@1@@Z
	??$_Emplace_back_with_unused_capacity@AEBV?$shared_ptr@Vdelivery_token@mqtt@@@std@@@?$vector@V?$shared_ptr@Vdelivery_token@mqtt@@@std@@V?$allocator@V?$shared_ptr@Vdelivery_token@mqtt@@@std@@@2@@std@@AEAAXAEBV?$shared_ptr@Vdelivery_token@mqtt@@@1@@Z
	??$_Emplace_back_with_unused_capacity@PEBD@?$vector@PEBDV?$allocator@PEBD@std@@@std@@AEAAX$$QEAPEBD@Z
	??$_Emplace_back_with_unused_capacity@V?$basic_string@DU?$char_traits@D@std@@V?$allocator@D@2@@std@@@?$vector@V?$basic_string@DU?$char_traits@D@std@@V?$allocator@D@2@@std@@V?$allocator@V?$basic_string@DU?$char_traits@D@std@@V?$allocator@D@2@@std@@@2@@std@@AEAAX$$QEAV?$basic_string@DU?$char_traits@D@std@@V?$allocator@D@2@@1@@Z
	??$_Emplace_back_with_unused_capacity@V?$buffer_view@D@mqtt@@@?$vector@V?$buffer_view@D@mqtt@@V?$allocator@V?$buffer_view@D@mqtt@@@std@@@std@@AEAAX$$QEAV?$buffer_view@D@mqtt@@@Z
	??$_Emplace_back_with_unused_capacity@W4ReasonCode@mqtt@@@?$vector@W4ReasonCode@mqtt@@V?$allocator@W4ReasonCode@mqtt@@@std@@@std@@AEAAX$$QEAW4ReasonCode@mqtt@@@Z
	??$_Emplace_reallocate@AEBH@?$vector@HV?$allocator@H@std@@@std@@QEAAPEAHQEAHAEBH@Z
	??$_Emplace_reallocate@AEBUMQTTSubscribe_options@@@?$vector@UMQTTSubscribe_options@@V?$allocator@UMQTTSubscribe_options@@@std@@@std@@QEAAPEAUMQTTSubscribe_options@@QEAU2@AEBU2@@Z
	??$_Emplace_reallocate@AEBV?$basic_string@DU?$char_traits@D@std@@V?$allocator@D@2@@std@@@?$vector@V?$basic_string@DU?$char_traits@D@std@@V?$allocator@D@2@@std@@V?$allocator@V?$basic_string@DU?$char_traits@D@std@@V?$allocator@D@2@@std@@@2@@std@@QEAAPEAV?$basic_string@DU?$char_traits@D@std@@V?$allocator@D@2@@1@QEAV21@AEBV21@@Z
	??$_Emplace_reallocate@AEBV?$shared_ptr@Vdelivery_token@mqtt@@@std@@@?$vector@V?$shared_ptr@Vdelivery_token@mqtt@@@std@@V?$allocator@V?$shared_ptr@Vdelivery_token@mqtt@@@std@@@2@@std@@QEAAPEAV?$shared_ptr@Vdelivery_token@mqtt@@@1@QEAV21@AEBV21@@Z
	??$_Emplace_reallocate@PEBD@?$vector@PEBDV?$allocator@PEBD@std@@@std@@QEAAPEAPEBDQEAPEBD$$QEAPEBD@Z
	??$_Emplace_reallocate@V?$basic_string@DU?$char_traits@D@std@@V?$allocator@D@2@@std@@@?$vector@V?$basic_string@DU?$char_traits@D@std@@V?$allocator@D@2@@std@@V?$allocator@V?$basic_string@DU?$char_traits@D@std@@V?$allocator@D@2@@std@@@2@@std@@QEAAPEAV?$basic_string@DU?$char_traits@D@std@@V?$allocator@D@2@@1@QEAV21@$$QEAV21@@Z
	??$_Emplace_reallocate@V?$buffer_view@D@mqtt@@@?$vector@V?$buffer_view@D@mqtt@@V?$allocator@V?$buffer_view@D@mqtt@@@std@@@std@@QEAAPEAV?$buffer_view@D@mqtt@@QEAV23@$$QEAV23@@Z
	??$_Emplace_reallocate@W4ReasonCode@mqtt@@@?$vector@W4ReasonCode@mqtt@@V?$allocator@W4ReasonCode@mqtt@@@std@@@std@@QEAAPEAW4ReasonCode@mqtt@@QEAW423@$$QEAW423@@Z
	??$_Free_non_head@V?$allocator@U?$_List_node@V?$shared_ptr@Vdelivery_token@mqtt@@@std@@PEAX@std@@@std@@@?$_List_node@V?$shared_ptr@Vdelivery_token@mqtt@@@std@@PEAX@std@@SAXAEAV?$allocator@U?$_List_node@V?$shared_ptr@Vdelivery_token@mqtt@@@std@@PEAX@std@@@1@PEAU01@@Z
	??$_Free_non_head@V?$allocator@U?$_List_node@V?$shared_ptr@Vtoken@mqtt@@@std@@PEAX@std@@@std@@@?$_List_node@V?$shared_ptr@Vtoken@mqtt@@@std@@PEAX@std@@SAXAEAV?$allocator@U?$_List_node@V?$shared_ptr@Vtoken@mqtt@@@std@@PEAX@std@@@1@PEAU01@@Z
	??$_Freenode0@V?$allocator@U?$_List_node@V?$shared_ptr@Vdelivery_token@mqtt@@@std@@PEAX@std@@@std@@@?$_List_node@V?$shared_ptr@Vdelivery_token@mqtt@@@std@@PEAX@std@@SAXAEAV?$allocator@U?$_List_node@V?$shared_ptr@Vdelivery_token@mqtt@@@std@@PEAX@std@@@1@PEAU01@@Z
	??$_Freenode0@V?$allocator@U?$_List_node@V?$shared_ptr@Vtoken@mqtt@@@std@@PEAX@std@@@std@@@?$_List_node@V?$shared_ptr@Vtoken@mqtt@@@std@@PEAX@std@@SAXAEAV?$allocator@U?$_List_node@V?$shared_ptr@Vtoken@mqtt@@@std@@PEAX@std@@@1@PEAU01@@Z
	??$_Freenode@V?$allocator@U?$_List_node@V?$shared_ptr@Vdelivery_token@mqtt@@@std@@PEAX@std@@@std@@@?$_List_node@V?$shared_ptr@Vdelivery_token@mqtt@@@std@@PEAX@std@@SAXAEAV?$allocator@U?$_List_node@V?$shared_ptr@Vdelivery_token@mqtt@@@std@@PEAX@std@@@1@PEAU01@@Z
	??$_Freenode@V?$allocator@U?$_List_node@V?$shared_ptr@Vtoken@mqtt@@@std@@PEAX@std@@@std@@@?$_List_node@V?$shared_ptr@Vtoken@mqtt@@@std@@PEAX@std@@SAXAEAV?$allocator@U?$_List_node@V?$shared_ptr@Vtoken@mqtt@@@std@@PEAX@std@@@1@PEAU01@@Z
	??$_Get_associated_state@XV?$_Fake_no_copy_callable_adapter@P8callback@mqtt@@EAAXAEBV?$basic_string@DU?$char_traits@D@std@@V?$allocator@D@2@@std@@@ZAEAPEAV12@AEBV34@@std@@@std@@YAPEAV?$_Associated_state@H@0@W4launch@0@$$QEAV?$_Fake_no_copy_callable_adapter@P8callback@mqtt@@EAAXAEBV?$basic_string@DU?$char_traits@D@std@@V?$allocator@D@2@@std@@@ZAEAPEAV12@AEBV34@@0@@Z
	??$_Get_associated_state@XV?$_Fake_no_copy_callable_adapter@P8callback@mqtt@@EAAXV?$shared_ptr@Vdelivery_token@mqtt@@@std@@@ZAEAPEAV12@AEAV34@@std@@@std@@YAPEAV?$_Associated_state@H@0@W4launch@0@$$QEAV?$_Fake_no_copy_callable_adapter@P8callback@mqtt@@EAAXV?$shared_ptr@Vdelivery_token@mqtt@@@std@@@ZAEAPEAV12@AEAV34@@0@@Z
	??$_Get_size_of_n@$00@std@@YA_K_K@Z
	??$_Get_size_of_n@$03@std@@YA_K_K@Z
	??$_Get_size_of_n@$07@std@@YA_K_K@Z
	??$_Get_size_of_n@$0BA@@std@@YA_K_K@Z
	??$_Get_size_of_n@$0CA@@std@@YA_K_K@Z
	??$_Get_size_of_n@$0CI@@std@@YA_K_K@Z
	??$_Get_size_of_n@$0M@@std@@YA_K_K@Z
	??$_Get_unwrapped@$$CBV?$basic_string@DU?$char_traits@D@std@@V?$allocator@D@2@@std@@@std@@YAPEBV?$basic_string@DU?$char_traits@D@std@@V?$allocator@D@2@@0@QEBV10@@Z
	??$_Get_unwrapped@D@std@@YAPEADQEAD@Z
	??$_Get_unwrapped@H@std@@YAPEAHQEAH@Z
	??$_Get_unwrapped@PEAV?$shared_ptr@$$CBVmessage@mqtt@@@std@@@std@@YAPEAPEAV?$shared_ptr@$$CBVmessage@mqtt@@@0@QEAPEAV10@@Z
	??$_Get_unwrapped@PEAX@std@@YAPEAPEAXQEAPEAX@Z
	??$_Get_unwrapped@PEBD@std@@YAPEAPEBDQEAPEBD@Z
	??$_Get_unwrapped@UMQTTSubscribe_options@@@std@@YAPEAUMQTTSubscribe_options@@QEAU1@@Z
	??$_Get_unwrapped@V?$basic_string@DU?$char_traits@D@std@@V?$allocator@D@2@@std@@@std@@YAPEAV?$basic_string@DU?$char_traits@D@std@@V?$allocator@D@2@@0@QEAV10@@Z
	??$_Get_unwrapped@V?$buffer_view@D@mqtt@@@std@@YAPEAV?$buffer_view@D@mqtt@@QEAV12@@Z
	??$_Get_unwrapped@V?$shared_ptr@Vdelivery_token@mqtt@@@std@@@std@@YAPEAV?$shared_ptr@Vdelivery_token@mqtt@@@0@QEAV10@@Z
	??$_Get_unwrapped@W4ReasonCode@mqtt@@@std@@YAPEAW4ReasonCode@mqtt@@QEAW412@@Z
	??$_Global_new@V?$_Func_impl_no_alloc@V<lambda_052e919cc0e5399df76dff3972c0cac1>@@E$$V@std@@AEBV<lambda_052e919cc0e5399df76dff3972c0cac1>@@@std@@YAPEAV?$_Func_impl_no_alloc@V<lambda_052e919cc0e5399df76dff3972c0cac1>@@E$$V@0@AEBV<lambda_052e919cc0e5399df76dff3972c0cac1>@@@Z
	??$_Global_new@V?$_Func_impl_no_alloc@V<lambda_052e919cc0e5399df76dff3972c0cac1>@@E$$V@std@@V<lambda_052e919cc0e5399df76dff3972c0cac1>@@@std@@YAPEAV?$_Func_impl_no_alloc@V<lambda_052e919cc0e5399df76dff3972c0cac1>@@E$$V@0@$$QEAV<lambda_052e919cc0e5399df76dff3972c0cac1>@@@Z
	??$_Global_new@V?$_Func_impl_no_alloc@V?$_Fake_no_copy_callable_adapter@P8callback@mqtt@@EAAXAEBV?$basic_string@DU?$char_traits@D@std@@V?$allocator@D@2@@std@@@ZAEAPEAV12@AEBV34@@std@@X$$V@std@@AEBV?$_Fake_no_copy_callable_adapter@P8callback@mqtt@@EAAXAEBV?$basic_string@DU?$char_traits@D@std@@V?$allocator@D@2@@std@@@ZAEAPEAV12@AEBV34@@2@@std@@YAPEAV?$_Func_impl_no_alloc@V?$_Fake_no_copy_callable_adapter@P8callback@mqtt@@EAAXAEBV?$basic_string@DU?$char_traits@D@std@@V?$allocator@D@2@@std@@@ZAEAPEAV12@AEBV34@@std@@X$$V@0@AEBV?$_Fake_no_copy_callable_adapter@P8callback@mqtt@@EAAXAEBV?$basic_string@DU?$char_traits@D@std@@V?$allocator@D@2@@std@@@ZAEAPEAV12@AEBV34@@0@@Z
	??$_Global_new@V?$_Func_impl_no_alloc@V?$_Fake_no_copy_callable_adapter@P8callback@mqtt@@EAAXAEBV?$basic_string@DU?$char_traits@D@std@@V?$allocator@D@2@@std@@@ZAEAPEAV12@AEBV34@@std@@X$$V@std@@V?$_Fake_no_copy_callable_adapter@P8callback@mqtt@@EAAXAEBV?$basic_string@DU?$char_traits@D@std@@V?$allocator@D@2@@std@@@ZAEAPEAV12@AEBV34@@2@@std@@YAPEAV?$_Func_impl_no_alloc@V?$_Fake_no_copy_callable_adapter@P8callback@mqtt@@EAAXAEBV?$basic_string@DU?$char_traits@D@std@@V?$allocator@D@2@@std@@@ZAEAPEAV12@AEBV34@@std@@X$$V@0@$$QEAV?$_Fake_no_copy_callable_adapter@P8callback@mqtt@@EAAXAEBV?$basic_string@DU?$char_traits@D@std@@V?$allocator@D@2@@std@@@ZAEAPEAV12@AEBV34@@0@@Z
	??$_Immortalize@V_Future_error_category@std@@@std@@YAAEAV_Future_error_category@0@XZ
	??$_Immortalize@V_Generic_error_category@std@@@std@@YAAEAV_Generic_error_category@0@XZ
	??$_Immortalize_impl@V_Future_error_category@std@@@std@@YAHPEAX0PEAPEAX@Z
	??$_Immortalize_impl@V_Generic_error_category@std@@@std@@YAHPEAX0PEAPEAX@Z
	??$_Insert@AEBV?$shared_ptr@Vdelivery_token@mqtt@@@std@@@?$list@V?$shared_ptr@Vdelivery_token@mqtt@@@std@@V?$allocator@V?$shared_ptr@Vdelivery_token@mqtt@@@std@@@2@@std@@QEAAXV?$_List_unchecked_const_iterator@V?$_List_val@U?$_List_simple_types@V?$shared_ptr@Vdelivery_token@mqtt@@@std@@@std@@@std@@U_Iterator_base0@2@@1@AEBV?$shared_ptr@Vdelivery_token@mqtt@@@1@@Z
	??$_Insert@AEBV?$shared_ptr@Vtoken@mqtt@@@std@@@?$list@V?$shared_ptr@Vtoken@mqtt@@@std@@V?$allocator@V?$shared_ptr@Vtoken@mqtt@@@std@@@2@@std@@QEAAXV?$_List_unchecked_const_iterator@V?$_List_val@U?$_List_simple_types@V?$shared_ptr@Vtoken@mqtt@@@std@@@std@@@std@@U_Iterator_base0@2@@1@AEBV?$shared_ptr@Vtoken@mqtt@@@1@@Z
	??$_Integral_to_string@DH@std@@YA?AV?$basic_string@DU?$char_traits@D@std@@V?$allocator@D@2@@0@H@Z
	??$_Invoke_stored@P8callback@mqtt@@EAAXAEBV?$basic_string@DU?$char_traits@D@std@@V?$allocator@D@2@@std@@@ZPEAV12@V34@@std@@YAX$$QEAV?$tuple@P8callback@mqtt@@EAAXAEBV?$basic_string@DU?$char_traits@D@std@@V?$allocator@D@2@@std@@@ZPEAV12@V34@@0@@Z
	??$_Invoke_stored@P8callback@mqtt@@EAAXV?$shared_ptr@Vdelivery_token@mqtt@@@std@@@ZPEAV12@V34@@std@@YAX$$QEAV?$tuple@P8callback@mqtt@@EAAXV?$shared_ptr@Vdelivery_token@mqtt@@@std@@@ZPEAV12@V34@@0@@Z
	??$_Invoke_stored_explicit@$$QEAV<lambda_0e64988457575224279dcb6d61e61bdd>@@AEAVexception_ptr@std@@$$Z$0A@@std@@YAX$$QEAV?$tuple@$$QEAV<lambda_0e64988457575224279dcb6d61e61bdd>@@AEAVexception_ptr@std@@@0@U?$integer_sequence@_K$0A@@0@@Z
	??$_Invoke_stored_explicit@P8callback@mqtt@@EAAXAEBV?$basic_string@DU?$char_traits@D@std@@V?$allocator@D@2@@std@@@ZPEAV12@V34@$$Z$0A@$00$01@std@@YAX$$QEAV?$tuple@P8callback@mqtt@@EAAXAEBV?$basic_string@DU?$char_traits@D@std@@V?$allocator@D@2@@std@@@ZPEAV12@V34@@0@U?$integer_sequence@_K$0A@$00$01@0@@Z
	??$_Invoke_stored_explicit@P8callback@mqtt@@EAAXV?$shared_ptr@Vdelivery_token@mqtt@@@std@@@ZPEAV12@V34@$$Z$0A@$00$01@std@@YAX$$QEAV?$tuple@P8callback@mqtt@@EAAXV?$shared_ptr@Vdelivery_token@mqtt@@@std@@@ZPEAV12@V34@@0@U?$integer_sequence@_K$0A@$00$01@0@@Z
	??$_LogWorkItemAndInvokeUserLambda@V?$function@$$A6AEXZ@std@@@?$_InitialTaskHandle@XV<lambda_16db0a518715f6321653a25f2424e302>@@U_TypeSelectorNoAsync@details@Concurrency@@@?$task@E@Concurrency@@QEBAEV?$function@$$A6AEXZ@std@@@Z
	??$_LogWorkItemAndInvokeUserLambda@V?$function@$$A6AEXZ@std@@@?$_InitialTaskHandle@XV<lambda_a28169bf5ada89786cdd03ccb91074b7>@@U_TypeSelectorNoAsync@details@Concurrency@@@?$task@E@Concurrency@@QEBAEV?$function@$$A6AEXZ@std@@@Z
	??$_Max_value@_K@std@@YAAEB_KAEB_K0@Z
	??$_Min_value@_K@std@@YAAEB_KAEB_K0@Z
	??$_Move_construct_from@$$CBV?$basic_string@DU?$char_traits@D@std@@V?$allocator@D@2@@std@@@?$_Ptr_base@$$CBV?$basic_string@DU?$char_traits@D@std@@V?$allocator@D@2@@std@@@std@@IEAAX$$QEAV01@@Z
	??$_Move_construct_from@$$CBVmessage@mqtt@@@?$_Ptr_base@$$CBVmessage@mqtt@@@std@@IEAAX$$QEAV01@@Z
	??$_Move_construct_from@$$CBVstring_collection@mqtt@@@?$_Ptr_base@$$CBVstring_collection@mqtt@@@std@@IEAAX$$QEAV01@@Z
	??$_Move_construct_from@U?$_Task_impl@E@details@Concurrency@@@?$_Ptr_base@U?$_Task_impl@E@details@Concurrency@@@std@@IEAAX$$QEAV01@@Z
	??$_Move_construct_from@U_ExceptionHolder@details@Concurrency@@@?$_Ptr_base@U_ExceptionHolder@details@Concurrency@@@std@@IEAAX$$QEAV01@@Z
	??$_Move_construct_from@U_Task_impl_base@details@Concurrency@@@?$_Ptr_base@U_Task_impl_base@details@Concurrency@@@std@@IEAAX$$QEAV01@@Z
	??$_Move_construct_from@Uscheduler_interface@Concurrency@@@?$_Ptr_base@Uscheduler_interface@Concurrency@@@std@@IEAAX$$QEAV01@@Z
	??$_Move_construct_from@V?$basic_string@DU?$char_traits@D@std@@V?$allocator@D@2@@std@@@?$_Ptr_base@$$CBV?$basic_string@DU?$char_traits@D@std@@V?$allocator@D@2@@std@@@std@@IEAAX$$QEAV?$_Ptr_base@V?$basic_string@DU?$char_traits@D@std@@V?$allocator@D@2@@std@@@1@@Z
	??$_Move_construct_from@V?$basic_string@DU?$char_traits@D@std@@V?$allocator@D@2@@std@@@?$_Ptr_base@V?$basic_string@DU?$char_traits@D@std@@V?$allocator@D@2@@std@@@std@@IEAAX$$QEAV01@@Z
	??$_Move_construct_from@Vdelivery_token@mqtt@@@?$_Ptr_base@Vdelivery_token@mqtt@@@std@@IEAAX$$QEAV01@@Z
	??$_Move_construct_from@Vmessage@mqtt@@@?$_Ptr_base@$$CBVmessage@mqtt@@@std@@IEAAX$$QEAV?$_Ptr_base@Vmessage@mqtt@@@1@@Z
	??$_Move_construct_from@Vmessage@mqtt@@@?$_Ptr_base@Vmessage@mqtt@@@std@@IEAAX$$QEAV01@@Z
	??$_Move_construct_from@Vstring_collection@mqtt@@@?$_Ptr_base@$$CBVstring_collection@mqtt@@@std@@IEAAX$$QEAV?$_Ptr_base@Vstring_collection@mqtt@@@1@@Z
	??$_Move_construct_from@Vstring_collection@mqtt@@@?$_Ptr_base@Vstring_collection@mqtt@@@std@@IEAAX$$QEAV01@@Z
	??$_Move_construct_from@Vtoken@mqtt@@@?$_Ptr_base@Vtoken@mqtt@@@std@@IEAAX$$QEAV01@@Z
	??$_Pocca@V?$allocator@D@std@@@std@@YAXAEAV?$allocator@D@0@AEBV10@@Z
	??$_Pocca@V?$allocator@PEAX@std@@@std@@YAXAEAV?$allocator@PEAX@0@AEBV10@@Z
	??$_Pocca@V?$allocator@V?$basic_string@DU?$char_traits@D@std@@V?$allocator@D@2@@std@@@std@@@std@@YAXAEAV?$allocator@V?$basic_string@DU?$char_traits@D@std@@V?$allocator@D@2@@std@@@0@AEBV10@@Z
	??$_Pocma@V?$allocator@D@std@@@std@@YAXAEAV?$allocator@D@0@0@Z
	??$_Range_construct_or_tidy@PEBV?$basic_string@DU?$char_traits@D@std@@V?$allocator@D@2@@std@@@?$vector@V?$basic_string@DU?$char_traits@D@std@@V?$allocator@D@2@@std@@V?$allocator@V?$basic_string@DU?$char_traits@D@std@@V?$allocator@D@2@@std@@@2@@std@@AEAAXPEBV?$basic_string@DU?$char_traits@D@std@@V?$allocator@D@2@@1@0Uforward_iterator_tag@1@@Z
	??$_Reallocate_for@V<lambda_66f57f934f28d61049862f64df852ff0>@@PEBD@?$basic_string@DU?$char_traits@D@std@@V?$allocator@D@2@@std@@AEAAAEAV01@_KV<lambda_66f57f934f28d61049862f64df852ff0>@@PEBD@Z
	??$_Reallocate_grow_by@V<lambda_65e615be2a453ca0576c979606f46740>@@PEBD_K@?$basic_string@DU?$char_traits@D@std@@V?$allocator@D@2@@std@@AEAAAEAV01@_KV<lambda_65e615be2a453ca0576c979606f46740>@@PEBD_K@Z
	??$_Reallocate_grow_by@V<lambda_9013ee9e23efe4882b67eff5b0ecf103>@@$$V@?$basic_string@DU?$char_traits@D@std@@V?$allocator@D@2@@std@@AEAAAEAV01@_KV<lambda_9013ee9e23efe4882b67eff5b0ecf103>@@@Z
	??$_Reallocate_grow_by@V<lambda_f3a66ab6a0570788f31503db83886f49>@@_KPEBD_K@?$basic_string@DU?$char_traits@D@std@@V?$allocator@D@2@@std@@AEAAAEAV01@_KV<lambda_f3a66ab6a0570788f31503db83886f49>@@_KPEBD2@Z
	??$_Refancy@PEAPEAX$0A@@std@@YAPEAPEAXPEAPEAX@Z
	??$_Reset@V<lambda_052e919cc0e5399df76dff3972c0cac1>@@@?$_Func_class@E$$V@std@@IEAAX$$QEAV<lambda_052e919cc0e5399df76dff3972c0cac1>@@@Z
	??$_Reset@V<lambda_16db0a518715f6321653a25f2424e302>@@@?$_Func_class@X$$V@std@@IEAAX$$QEAV<lambda_16db0a518715f6321653a25f2424e302>@@@Z
	??$_Reset@V<lambda_713ee8bbd6b08550d59c52695cab5ce3>@@@?$_Func_class@X$$V@std@@IEAAX$$QEAV<lambda_713ee8bbd6b08550d59c52695cab5ce3>@@@Z
	??$_Reset@V<lambda_763529b0c7473cbc215a52d189ac9b18>@@@?$_Func_class@X$$V@std@@IEAAX$$QEAV<lambda_763529b0c7473cbc215a52d189ac9b18>@@@Z
	??$_Reset@V<lambda_a28169bf5ada89786cdd03ccb91074b7>@@@?$_Func_class@X$$V@std@@IEAAX$$QEAV<lambda_a28169bf5ada89786cdd03ccb91074b7>@@@Z
	??$_Reset@V<lambda_f25c37099038263181b5186a3fa41b37>@@@?$_Func_class@X$$V@std@@IEAAX$$QEAV<lambda_f25c37099038263181b5186a3fa41b37>@@@Z
	??$_Reset@V?$_Fake_no_copy_callable_adapter@P8callback@mqtt@@EAAXAEBV?$basic_string@DU?$char_traits@D@std@@V?$allocator@D@2@@std@@@ZAEAPEAV12@AEBV34@@std@@@?$_Func_class@X$$V@std@@IEAAX$$QEAV?$_Fake_no_copy_callable_adapter@P8callback@mqtt@@EAAXAEBV?$basic_string@DU?$char_traits@D@std@@V?$allocator@D@2@@std@@@ZAEAPEAV12@AEBV34@@1@@Z
	??$_Reset@V?$_Fake_no_copy_callable_adapter@P8callback@mqtt@@EAAXV?$shared_ptr@Vdelivery_token@mqtt@@@std@@@ZAEAPEAV12@AEAV34@@std@@@?$_Func_class@X$$V@std@@IEAAX$$QEAV?$_Fake_no_copy_callable_adapter@P8callback@mqtt@@EAAXV?$shared_ptr@Vdelivery_token@mqtt@@@std@@@ZAEAPEAV12@AEAV34@@1@@Z
	??$_Resize@U_Value_init_tag@std@@@?$vector@PEAXV?$allocator@PEAX@std@@@std@@AEAAX_KAEBU_Value_init_tag@1@@Z
	??$_Resize_reallocate@U_Value_init_tag@std@@@?$vector@PEAXV?$allocator@PEAX@std@@@std@@AEAAX_KAEBU_Value_init_tag@1@@Z
	??$_Set_ptr_rep_and_enable_shared@U?$_Task_impl@E@details@Concurrency@@@?$shared_ptr@U?$_Task_impl@E@details@Concurrency@@@std@@AEAAXQEAU?$_Task_impl@E@details@Concurrency@@QEAV_Ref_count_base@1@@Z
	??$_Set_ptr_rep_and_enable_shared@U_ExceptionHolder@details@Concurrency@@@?$shared_ptr@U_ExceptionHolder@details@Concurrency@@@std@@AEAAXQEAU_ExceptionHolder@details@Concurrency@@QEAV_Ref_count_base@1@@Z
	??$_Set_ptr_rep_and_enable_shared@V?$basic_string@DU?$char_traits@D@std@@V?$allocator@D@2@@std@@@?$shared_ptr@V?$basic_string@DU?$char_traits@D@std@@V?$allocator@D@2@@std@@@std@@AEAAXQEAV?$basic_string@DU?$char_traits@D@std@@V?$allocator@D@2@@1@QEAV_Ref_count_base@1@@Z
	??$_Set_ptr_rep_and_enable_shared@Vdelivery_token@mqtt@@@?$shared_ptr@Vdelivery_token@mqtt@@@std@@AEAAXQEAVdelivery_token@mqtt@@QEAV_Ref_count_base@1@@Z
	??$_Set_ptr_rep_and_enable_shared@Vmessage@mqtt@@@?$shared_ptr@Vmessage@mqtt@@@std@@AEAAXQEAVmessage@mqtt@@QEAV_Ref_count_base@1@@Z
	??$_Set_ptr_rep_and_enable_shared@Vstring_collection@mqtt@@@?$shared_ptr@Vstring_collection@mqtt@@@std@@AEAAXQEAVstring_collection@mqtt@@QEAV_Ref_count_base@1@@Z
	??$_Set_ptr_rep_and_enable_shared@Vtoken@mqtt@@@?$shared_ptr@Vtoken@mqtt@@@std@@AEAAXQEAVtoken@mqtt@@QEAV_Ref_count_base@1@@Z
	??$_Setpd@PEAVmessage@mqtt@@V<lambda_682f2f383c70f45f1f9b18ee8e8227fb>@@@?$shared_ptr@Vmessage@mqtt@@@std@@AEAAXQEAVmessage@mqtt@@V<lambda_682f2f383c70f45f1f9b18ee8e8227fb>@@@Z
	??$_Setpd@PEAVstring_collection@mqtt@@V<lambda_4d9f54b62c80a46497c8ee29775a19d4>@@@?$shared_ptr@Vstring_collection@mqtt@@@std@@AEAAXQEAVstring_collection@mqtt@@V<lambda_4d9f54b62c80a46497c8ee29775a19d4>@@@Z
	??$_TaskInitMaybeFunctor@V<lambda_16db0a518715f6321653a25f2424e302>@@@?$task@X@Concurrency@@AEAAXAEAV<lambda_16db0a518715f6321653a25f2424e302>@@U?$integral_constant@_N$00@std@@@Z
	??$_TaskInitMaybeFunctor@V<lambda_a28169bf5ada89786cdd03ccb91074b7>@@@?$task@X@Concurrency@@AEAAXAEAV<lambda_a28169bf5ada89786cdd03ccb91074b7>@@U?$integral_constant@_N$00@std@@@Z
	??$_TaskInitWithFunctor@XV<lambda_16db0a518715f6321653a25f2424e302>@@@?$task@E@Concurrency@@AEAAXAEBV<lambda_16db0a518715f6321653a25f2424e302>@@@Z
	??$_TaskInitWithFunctor@XV<lambda_a28169bf5ada89786cdd03ccb91074b7>@@@?$task@E@Concurrency@@AEAAXAEBV<lambda_a28169bf5ada89786cdd03ccb91074b7>@@@Z
	??$_Test_callable@V<lambda_052e919cc0e5399df76dff3972c0cac1>@@@std@@YA_NAEBV<lambda_052e919cc0e5399df76dff3972c0cac1>@@@Z
	??$_Test_callable@V<lambda_16db0a518715f6321653a25f2424e302>@@@std@@YA_NAEBV<lambda_16db0a518715f6321653a25f2424e302>@@@Z
	??$_Test_callable@V<lambda_713ee8bbd6b08550d59c52695cab5ce3>@@@std@@YA_NAEBV<lambda_713ee8bbd6b08550d59c52695cab5ce3>@@@Z
	??$_Test_callable@V<lambda_763529b0c7473cbc215a52d189ac9b18>@@@std@@YA_NAEBV<lambda_763529b0c7473cbc215a52d189ac9b18>@@@Z
	??$_Test_callable@V<lambda_a28169bf5ada89786cdd03ccb91074b7>@@@std@@YA_NAEBV<lambda_a28169bf5ada89786cdd03ccb91074b7>@@@Z
	??$_Test_callable@V<lambda_f25c37099038263181b5186a3fa41b37>@@@std@@YA_NAEBV<lambda_f25c37099038263181b5186a3fa41b37>@@@Z
	??$_Test_callable@V?$_Fake_no_copy_callable_adapter@P8callback@mqtt@@EAAXAEBV?$basic_string@DU?$char_traits@D@std@@V?$allocator@D@2@@std@@@ZAEAPEAV12@AEBV34@@std@@@std@@YA_NAEBV?$_Fake_no_copy_callable_adapter@P8callback@mqtt@@EAAXAEBV?$basic_string@DU?$char_traits@D@std@@V?$allocator@D@2@@std@@@ZAEAPEAV12@AEBV34@@0@@Z
	??$_Test_callable@V?$_Fake_no_copy_callable_adapter@P8callback@mqtt@@EAAXV?$shared_ptr@Vdelivery_token@mqtt@@@std@@@ZAEAPEAV12@AEAV34@@std@@@std@@YA_NAEBV?$_Fake_no_copy_callable_adapter@P8callback@mqtt@@EAAXV?$shared_ptr@Vdelivery_token@mqtt@@@std@@@ZAEAPEAV12@AEAV34@@0@@Z
	??$_To_xtime_10_day_clamped@_JU?$ratio@$00$0DLJKMKAA@@std@@@std@@YA_NAEAUxtime@@AEBV?$duration@_JU?$ratio@$00$0DLJKMKAA@@std@@@chrono@0@@Z
	??$_UIntegral_to_buff@DI@std@@YAPEADPEADI@Z
	??$_Ucopy@PEAPEAX@?$vector@PEAXV?$allocator@PEAX@std@@@std@@AEAAPEAPEAXPEAPEAX00@Z
	??$_Ucopy@PEAV?$basic_string@DU?$char_traits@D@std@@V?$allocator@D@2@@std@@@?$vector@V?$basic_string@DU?$char_traits@D@std@@V?$allocator@D@2@@std@@V?$allocator@V?$basic_string@DU?$char_traits@D@std@@V?$allocator@D@2@@std@@@2@@std@@AEAAPEAV?$basic_string@DU?$char_traits@D@std@@V?$allocator@D@2@@1@PEAV21@00@Z
	??$_Ucopy@PEAW4ReasonCode@mqtt@@@?$vector@W4ReasonCode@mqtt@@V?$allocator@W4ReasonCode@mqtt@@@std@@@std@@AEAAPEAW4ReasonCode@mqtt@@PEAW423@00@Z
	??$_Ucopy@PEBV?$basic_string@DU?$char_traits@D@std@@V?$allocator@D@2@@std@@@?$vector@V?$basic_string@DU?$char_traits@D@std@@V?$allocator@D@2@@std@@V?$allocator@V?$basic_string@DU?$char_traits@D@std@@V?$allocator@D@2@@std@@@2@@std@@AEAAPEAV?$basic_string@DU?$char_traits@D@std@@V?$allocator@D@2@@1@PEBV21@0PEAV21@@Z
	??$_Unfancy@D@std@@YAPEADPEAD@Z
	??$_Unfancy@H@std@@YAPEAHPEAH@Z
	??$_Unfancy@PEAV?$shared_ptr@$$CBVmessage@mqtt@@@std@@@std@@YAPEAPEAV?$shared_ptr@$$CBVmessage@mqtt@@@0@PEAPEAV10@@Z
	??$_Unfancy@PEAX@std@@YAPEAPEAXPEAPEAX@Z
	??$_Unfancy@PEBD@std@@YAPEAPEBDPEAPEBD@Z
	??$_Unfancy@UMQTTSubscribe_options@@@std@@YAPEAUMQTTSubscribe_options@@PEAU1@@Z
	??$_Unfancy@U_Container_proxy@std@@@std@@YAPEAU_Container_proxy@0@PEAU10@@Z
	??$_Unfancy@V?$basic_string@DU?$char_traits@D@std@@V?$allocator@D@2@@std@@@std@@YAPEAV?$basic_string@DU?$char_traits@D@std@@V?$allocator@D@2@@0@PEAV10@@Z
	??$_Unfancy@V?$buffer_view@D@mqtt@@@std@@YAPEAV?$buffer_view@D@mqtt@@PEAV12@@Z
	??$_Unfancy@V?$shared_ptr@$$CBVmessage@mqtt@@@std@@@std@@YAPEAV?$shared_ptr@$$CBVmessage@mqtt@@@0@PEAV10@@Z
	??$_Unfancy@V?$shared_ptr@Vdelivery_token@mqtt@@@std@@@std@@YAPEAV?$shared_ptr@Vdelivery_token@mqtt@@@0@PEAV10@@Z
	??$_Unfancy@W4ReasonCode@mqtt@@@std@@YAPEAW4ReasonCode@mqtt@@PEAW412@@Z
	??$_Unfancy_maybe_null@H@std@@YAPEAHPEAH@Z
	??$_Unfancy_maybe_null@PEBD@std@@YAPEAPEBDPEAPEBD@Z
	??$_Unfancy_maybe_null@UMQTTSubscribe_options@@@std@@YAPEAUMQTTSubscribe_options@@PEAU1@@Z
	??$_Uninitialized_copy@PEAPEAV?$shared_ptr@$$CBVmessage@mqtt@@@std@@V?$allocator@PEAV?$shared_ptr@$$CBVmessage@mqtt@@@std@@@2@@std@@YAPEAPEAV?$shared_ptr@$$CBVmessage@mqtt@@@0@QEAPEAV10@0PEAPEAV10@AEAV?$allocator@PEAV?$shared_ptr@$$CBVmessage@mqtt@@@std@@@0@@Z
	??$_Uninitialized_copy@PEAPEAXV?$allocator@PEAX@std@@@std@@YAPEAPEAXQEAPEAX0PEAPEAXAEAV?$allocator@PEAX@0@@Z
	??$_Uninitialized_copy@PEAV?$basic_string@DU?$char_traits@D@std@@V?$allocator@D@2@@std@@V?$allocator@V?$basic_string@DU?$char_traits@D@std@@V?$allocator@D@2@@std@@@2@@std@@YAPEAV?$basic_string@DU?$char_traits@D@std@@V?$allocator@D@2@@0@QEAV10@0PEAV10@AEAV?$allocator@V?$basic_string@DU?$char_traits@D@std@@V?$allocator@D@2@@std@@@0@@Z
	??$_Uninitialized_copy@PEAW4ReasonCode@mqtt@@V?$allocator@W4ReasonCode@mqtt@@@std@@@std@@YAPEAW4ReasonCode@mqtt@@QEAW412@0PEAW412@AEAV?$allocator@W4ReasonCode@mqtt@@@0@@Z
	??$_Uninitialized_copy@PEBV?$basic_string@DU?$char_traits@D@std@@V?$allocator@D@2@@std@@V?$allocator@V?$basic_string@DU?$char_traits@D@std@@V?$allocator@D@2@@std@@@2@@std@@YAPEAV?$basic_string@DU?$char_traits@D@std@@V?$allocator@D@2@@0@QEBV10@0PEAV10@AEAV?$allocator@V?$basic_string@DU?$char_traits@D@std@@V?$allocator@D@2@@std@@@0@@Z
	??$_Uninitialized_move@PEAHV?$allocator@H@std@@@std@@YAPEAHQEAH0PEAHAEAV?$allocator@H@0@@Z
	??$_Uninitialized_move@PEAPEAXV?$allocator@PEAX@std@@@std@@YAPEAPEAXQEAPEAX0PEAPEAXAEAV?$allocator@PEAX@0@@Z
	??$_Uninitialized_move@PEAPEBDV?$allocator@PEBD@std@@@std@@YAPEAPEBDQEAPEBD0PEAPEBDAEAV?$allocator@PEBD@0@@Z
	??$_Uninitialized_move@PEAUMQTTSubscribe_options@@V?$allocator@UMQTTSubscribe_options@@@std@@@std@@YAPEAUMQTTSubscribe_options@@QEAU1@0PEAU1@AEAV?$allocator@UMQTTSubscribe_options@@@0@@Z
	??$_Uninitialized_move@PEAV?$basic_string@DU?$char_traits@D@std@@V?$allocator@D@2@@std@@V?$allocator@V?$basic_string@DU?$char_traits@D@std@@V?$allocator@D@2@@std@@@2@@std@@YAPEAV?$basic_string@DU?$char_traits@D@std@@V?$allocator@D@2@@0@QEAV10@0PEAV10@AEAV?$allocator@V?$basic_string@DU?$char_traits@D@std@@V?$allocator@D@2@@std@@@0@@Z
	??$_Uninitialized_move@PEAV?$buffer_view@D@mqtt@@V?$allocator@V?$buffer_view@D@mqtt@@@std@@@std@@YAPEAV?$buffer_view@D@mqtt@@QEAV12@0PEAV12@AEAV?$allocator@V?$buffer_view@D@mqtt@@@0@@Z
	??$_Uninitialized_move@PEAV?$shared_ptr@Vdelivery_token@mqtt@@@std@@V?$allocator@V?$shared_ptr@Vdelivery_token@mqtt@@@std@@@2@@std@@YAPEAV?$shared_ptr@Vdelivery_token@mqtt@@@0@QEAV10@0PEAV10@AEAV?$allocator@V?$shared_ptr@Vdelivery_token@mqtt@@@std@@@0@@Z
	??$_Uninitialized_move@PEAW4ReasonCode@mqtt@@V?$allocator@W4ReasonCode@mqtt@@@std@@@std@@YAPEAW4ReasonCode@mqtt@@QEAW412@0PEAW412@AEAV?$allocator@W4ReasonCode@mqtt@@@0@@Z
	??$_Uninitialized_value_construct_n@V?$allocator@PEAV?$shared_ptr@$$CBVmessage@mqtt@@@std@@@std@@@std@@YAPEAPEAV?$shared_ptr@$$CBVmessage@mqtt@@@0@PEAPEAV10@_KAEAV?$allocator@PEAV?$shared_ptr@$$CBVmessage@mqtt@@@std@@@0@@Z
	??$_Uninitialized_value_construct_n@V?$allocator@PEAX@std@@@std@@YAPEAPEAXPEAPEAX_KAEAV?$allocator@PEAX@0@@Z
	??$_ValidateTaskConstructorArgs@XV<lambda_16db0a518715f6321653a25f2424e302>@@@details@Concurrency@@YAXAEBV<lambda_16db0a518715f6321653a25f2424e302>@@@Z
	??$_ValidateTaskConstructorArgs@XV<lambda_a28169bf5ada89786cdd03ccb91074b7>@@@details@Concurrency@@YAXAEBV<lambda_a28169bf5ada89786cdd03ccb91074b7>@@@Z
	??$_Verify_range@D@std@@YAXQEBD0@Z
	??$_Verify_range@PEAX@std@@YAXQEBQEAX0@Z
	??$_Verify_range@V?$basic_string@DU?$char_traits@D@std@@V?$allocator@D@2@@std@@@std@@YAXQEBV?$basic_string@DU?$char_traits@D@std@@V?$allocator@D@2@@0@0@Z
	??$_Wait_until1@Usteady_clock@chrono@std@@V?$duration@_JU?$ratio@$00$0DLJKMKAA@@std@@@23@V<lambda_8753e8241f2a5a762f79a862fae56c72>@@@condition_variable@std@@AEAA_NAEAV?$unique_lock@Vmutex@std@@@1@AEBV?$time_point@Usteady_clock@chrono@std@@V?$duration@_JU?$ratio@$00$0DLJKMKAA@@std@@@23@@chrono@1@AEAV<lambda_8753e8241f2a5a762f79a862fae56c72>@@@Z
	??$_Weakly_construct_from@U?$_Task_impl@E@details@Concurrency@@@?$_Ptr_base@U_Task_impl_base@details@Concurrency@@@std@@IEAAXAEBV?$_Ptr_base@U?$_Task_impl@E@details@Concurrency@@@1@@Z
	??$_Weakly_construct_from@U_Task_impl_base@details@Concurrency@@@?$_Ptr_base@U_Task_impl_base@details@Concurrency@@@std@@IEAAXAEBV01@@Z
	??$_Weakly_construct_from@Vdelivery_token@mqtt@@@?$_Ptr_base@Vdelivery_token@mqtt@@@std@@IEAAXAEBV01@@Z
	??$_Weakly_construct_from@Vtoken@mqtt@@@?$_Ptr_base@Vtoken@mqtt@@@std@@IEAAXAEBV01@@Z
	??$_Zero_range@PEAPEAV?$shared_ptr@$$CBVmessage@mqtt@@@std@@@std@@YAPEAPEAV?$shared_ptr@$$CBVmessage@mqtt@@@0@QEAPEAV10@0@Z
	??$_Zero_range@PEAPEAX@std@@YAPEAPEAXQEAPEAX0@Z
	??$addressof@$$CBJ@std@@YAPEBJAEBJ@Z
	??$addressof@$$CBV<lambda_052e919cc0e5399df76dff3972c0cac1>@@@std@@YAPEBV<lambda_052e919cc0e5399df76dff3972c0cac1>@@AEBV1@@Z
	??$addressof@$$CBV<lambda_16db0a518715f6321653a25f2424e302>@@@std@@YAPEBV<lambda_16db0a518715f6321653a25f2424e302>@@AEBV1@@Z
	??$addressof@$$CBV<lambda_4d9f54b62c80a46497c8ee29775a19d4>@@@std@@YAPEBV<lambda_4d9f54b62c80a46497c8ee29775a19d4>@@AEBV1@@Z
	??$addressof@$$CBV<lambda_682f2f383c70f45f1f9b18ee8e8227fb>@@@std@@YAPEBV<lambda_682f2f383c70f45f1f9b18ee8e8227fb>@@AEBV1@@Z
	??$addressof@$$CBV<lambda_713ee8bbd6b08550d59c52695cab5ce3>@@@std@@YAPEBV<lambda_713ee8bbd6b08550d59c52695cab5ce3>@@AEBV1@@Z
	??$addressof@$$CBV<lambda_763529b0c7473cbc215a52d189ac9b18>@@@std@@YAPEBV<lambda_763529b0c7473cbc215a52d189ac9b18>@@AEBV1@@Z
	??$addressof@$$CBV<lambda_a28169bf5ada89786cdd03ccb91074b7>@@@std@@YAPEBV<lambda_a28169bf5ada89786cdd03ccb91074b7>@@AEBV1@@Z
	??$addressof@$$CBV<lambda_f25c37099038263181b5186a3fa41b37>@@@std@@YAPEBV<lambda_f25c37099038263181b5186a3fa41b37>@@AEBV1@@Z
	??$addressof@$$CBV?$_Fake_no_copy_callable_adapter@P8callback@mqtt@@EAAXAEBV?$basic_string@DU?$char_traits@D@std@@V?$allocator@D@2@@std@@@ZAEAPEAV12@AEBV34@@std@@@std@@YAPEBV?$_Fake_no_copy_callable_adapter@P8callback@mqtt@@EAAXAEBV?$basic_string@DU?$char_traits@D@std@@V?$allocator@D@2@@std@@@ZAEAPEAV12@AEBV34@@0@AEBV10@@Z
	??$addressof@$$CBV?$_Fake_no_copy_callable_adapter@P8callback@mqtt@@EAAXV?$shared_ptr@Vdelivery_token@mqtt@@@std@@@ZAEAPEAV12@AEAV34@@std@@@std@@YAPEBV?$_Fake_no_copy_callable_adapter@P8callback@mqtt@@EAAXV?$shared_ptr@Vdelivery_token@mqtt@@@std@@@ZAEAPEAV12@AEAV34@@0@AEBV10@@Z
	??$addressof@$$CBV?$_List_val@U?$_List_simple_types@V?$shared_ptr@Vdelivery_token@mqtt@@@std@@@std@@@std@@@std@@YAPEBV?$_List_val@U?$_List_simple_types@V?$shared_ptr@Vdelivery_token@mqtt@@@std@@@std@@@0@AEBV10@@Z
	??$addressof@$$CBV?$_List_val@U?$_List_simple_types@V?$shared_ptr@Vtoken@mqtt@@@std@@@std@@@std@@@std@@YAPEBV?$_List_val@U?$_List_simple_types@V?$shared_ptr@Vtoken@mqtt@@@std@@@std@@@0@AEBV10@@Z
	??$addressof@$$CBV?$_State_manager@H@std@@@std@@YAPEBV?$_State_manager@H@0@AEBV10@@Z
	??$addressof@$$CBV?$_String_val@U?$_Simple_types@D@std@@@std@@@std@@YAPEBV?$_String_val@U?$_Simple_types@D@std@@@0@AEBV10@@Z
	??$addressof@$$CBV?$basic_string@DU?$char_traits@D@std@@V?$allocator@D@2@@std@@@std@@YAPEBV?$basic_string@DU?$char_traits@D@std@@V?$allocator@D@2@@0@AEBV10@@Z
	??$addressof@$$CBV?$vector@PEAXV?$allocator@PEAX@std@@@std@@@std@@YAPEBV?$vector@PEAXV?$allocator@PEAX@std@@@0@AEBV10@@Z
	??$addressof@$$CBV?$vector@V?$basic_string@DU?$char_traits@D@std@@V?$allocator@D@2@@std@@V?$allocator@V?$basic_string@DU?$char_traits@D@std@@V?$allocator@D@2@@std@@@2@@std@@@std@@YAPEBV?$vector@V?$basic_string@DU?$char_traits@D@std@@V?$allocator@D@2@@std@@V?$allocator@V?$basic_string@DU?$char_traits@D@std@@V?$allocator@D@2@@std@@@2@@0@AEBV10@@Z
	??$addressof@J@std@@YAPEAJAEAJ@Z
	??$addressof@PEAD@std@@YAPEAPEADAEAPEAD@Z
	??$addressof@PEAU?$_List_node@V?$shared_ptr@Vdelivery_token@mqtt@@@std@@PEAX@std@@@std@@YAPEAPEAU?$_List_node@V?$shared_ptr@Vdelivery_token@mqtt@@@std@@PEAX@0@AEAPEAU10@@Z
	??$addressof@PEAU?$_List_node@V?$shared_ptr@Vtoken@mqtt@@@std@@PEAX@std@@@std@@YAPEAPEAU?$_List_node@V?$shared_ptr@Vtoken@mqtt@@@std@@PEAX@0@AEAPEAU10@@Z
	??$addressof@PEAV?$shared_ptr@$$CBVmessage@mqtt@@@std@@@std@@YAPEAPEAV?$shared_ptr@$$CBVmessage@mqtt@@@0@AEAPEAV10@@Z
	??$addressof@U_Container_base12@std@@@std@@YAPEAU_Container_base12@0@AEAU10@@Z
	??$addressof@V?$_List_val@U?$_List_simple_types@V?$shared_ptr@Vdelivery_token@mqtt@@@std@@@std@@@std@@@std@@YAPEAV?$_List_val@U?$_List_simple_types@V?$shared_ptr@Vdelivery_token@mqtt@@@std@@@std@@@0@AEAV10@@Z
	??$addressof@V?$_List_val@U?$_List_simple_types@V?$shared_ptr@Vtoken@mqtt@@@std@@@std@@@std@@@std@@YAPEAV?$_List_val@U?$_List_simple_types@V?$shared_ptr@Vtoken@mqtt@@@std@@@std@@@0@AEAV10@@Z
	??$addressof@V?$_String_val@U?$_Simple_types@D@std@@@std@@@std@@YAPEAV?$_String_val@U?$_Simple_types@D@std@@@0@AEAV10@@Z
	??$addressof@V?$basic_string@DU?$char_traits@D@std@@V?$allocator@D@2@@std@@@std@@YAPEAV?$basic_string@DU?$char_traits@D@std@@V?$allocator@D@2@@0@AEAV10@@Z
	??$addressof@V?$shared_ptr@Vdelivery_token@mqtt@@@std@@@std@@YAPEAV?$shared_ptr@Vdelivery_token@mqtt@@@0@AEAV10@@Z
	??$addressof@V?$shared_ptr@Vtoken@mqtt@@@std@@@std@@YAPEAV?$shared_ptr@Vtoken@mqtt@@@0@AEAV10@@Z
	??$addressof@V?$tuple@$$QEAV<lambda_0e64988457575224279dcb6d61e61bdd>@@AEAVexception_ptr@std@@@std@@@std@@YAPEAV?$tuple@$$QEAV<lambda_0e64988457575224279dcb6d61e61bdd>@@AEAVexception_ptr@std@@@0@AEAV10@@Z
	??$addressof@Vmutex@std@@@std@@YAPEAVmutex@0@AEAV10@@Z
	??$advance@PEAV?$basic_string@DU?$char_traits@D@std@@V?$allocator@D@2@@std@@_J@std@@YAXAEAPEAV?$basic_string@DU?$char_traits@D@std@@V?$allocator@D@2@@0@_J@Z
	??$assign@PEAPEAXX@?$vector@PEAXV?$allocator@PEAX@std@@@std@@QEAAXPEAPEAX0@Z
	??$assign@PEAV?$basic_string@DU?$char_traits@D@std@@V?$allocator@D@2@@std@@X@?$vector@V?$basic_string@DU?$char_traits@D@std@@V?$allocator@D@2@@std@@V?$allocator@V?$basic_string@DU?$char_traits@D@std@@V?$allocator@D@2@@std@@@2@@std@@QEAAXPEAV?$basic_string@DU?$char_traits@D@std@@V?$allocator@D@2@@1@0@Z
	??$async@P8callback@mqtt@@EAAXAEBV?$basic_string@DU?$char_traits@D@std@@V?$allocator@D@2@@std@@@ZAEAPEAV12@AEBV34@@std@@YA?AV?$future@X@0@W4launch@0@$$QEAP8callback@mqtt@@EAAXAEBV?$basic_string@DU?$char_traits@D@std@@V?$allocator@D@2@@0@@ZAEAPEAV34@1@Z
	??$async@P8callback@mqtt@@EAAXV?$shared_ptr@Vdelivery_token@mqtt@@@std@@@ZAEAPEAV12@AEAV34@@std@@YA?AV?$future@X@0@W4launch@0@$$QEAP8callback@mqtt@@EAAXV?$shared_ptr@Vdelivery_token@mqtt@@@0@@ZAEAPEAV34@AEAV50@@Z
	??$atomic_compare_exchange@J@details@Concurrency@@YAJAEAU?$atomic@J@std@@JJ@Z
	??$atomic_exchange@J@details@Concurrency@@YAJAEAU?$atomic@J@std@@J@Z
	??$call_once@V<lambda_0e64988457575224279dcb6d61e61bdd>@@$$V@std@@YAXAEAUonce_flag@0@$$QEAV<lambda_0e64988457575224279dcb6d61e61bdd>@@@Z
	??$construct@HAEBH@?$_Default_allocator_traits@V?$allocator@H@std@@@std@@SAXAEAV?$allocator@H@1@QEAHAEBH@Z
	??$construct@PEADAEBQEAD@?$_Default_allocator_traits@V?$allocator@D@std@@@std@@SAXAEAV?$allocator@D@1@QEAPEADAEBQEAD@Z
	??$construct@PEAU?$_List_node@V?$shared_ptr@Vdelivery_token@mqtt@@@std@@PEAX@std@@AEAPEAU12@@?$_Default_allocator_traits@V?$allocator@U?$_List_node@V?$shared_ptr@Vdelivery_token@mqtt@@@std@@PEAX@std@@@std@@@std@@SAXAEAV?$allocator@U?$_List_node@V?$shared_ptr@Vdelivery_token@mqtt@@@std@@PEAX@std@@@1@QEAPEAU?$_List_node@V?$shared_ptr@Vdelivery_token@mqtt@@@std@@PEAX@1@AEAPEAU31@@Z
	??$construct@PEAU?$_List_node@V?$shared_ptr@Vdelivery_token@mqtt@@@std@@PEAX@std@@AEBQEAU12@@?$_Default_allocator_traits@V?$allocator@U?$_List_node@V?$shared_ptr@Vdelivery_token@mqtt@@@std@@PEAX@std@@@std@@@std@@SAXAEAV?$allocator@U?$_List_node@V?$shared_ptr@Vdelivery_token@mqtt@@@std@@PEAX@std@@@1@QEAPEAU?$_List_node@V?$shared_ptr@Vdelivery_token@mqtt@@@std@@PEAX@1@AEBQEAU31@@Z
	??$construct@PEAU?$_List_node@V?$shared_ptr@Vtoken@mqtt@@@std@@PEAX@std@@AEAPEAU12@@?$_Default_allocator_traits@V?$allocator@U?$_List_node@V?$shared_ptr@Vtoken@mqtt@@@std@@PEAX@std@@@std@@@std@@SAXAEAV?$allocator@U?$_List_node@V?$shared_ptr@Vtoken@mqtt@@@std@@PEAX@std@@@1@QEAPEAU?$_List_node@V?$shared_ptr@Vtoken@mqtt@@@std@@PEAX@1@AEAPEAU31@@Z
	??$construct@PEAU?$_List_node@V?$shared_ptr@Vtoken@mqtt@@@std@@PEAX@std@@AEBQEAU12@@?$_Default_allocator_traits@V?$allocator@U?$_List_node@V?$shared_ptr@Vtoken@mqtt@@@std@@PEAX@std@@@std@@@std@@SAXAEAV?$allocator@U?$_List_node@V?$shared_ptr@Vtoken@mqtt@@@std@@PEAX@std@@@1@QEAPEAU?$_List_node@V?$shared_ptr@Vtoken@mqtt@@@std@@PEAX@1@AEBQEAU31@@Z
	??$construct@PEBDPEBD@?$_Default_allocator_traits@V?$allocator@PEBD@std@@@std@@SAXAEAV?$allocator@PEBD@1@QEAPEBD$$QEAPEBD@Z
	??$construct@UMQTTSubscribe_options@@AEBU1@@?$_Default_allocator_traits@V?$allocator@UMQTTSubscribe_options@@@std@@@std@@SAXAEAV?$allocator@UMQTTSubscribe_options@@@1@QEAUMQTTSubscribe_options@@AEBU3@@Z
	??$construct@U_Container_proxy@std@@PEAU_Container_base12@2@@?$_Default_allocator_traits@V?$allocator@U_Container_proxy@std@@@std@@@std@@SAXAEAV?$allocator@U_Container_proxy@std@@@1@QEAU_Container_proxy@1@$$QEAPEAU_Container_base12@1@@Z
	??$construct@V?$basic_string@DU?$char_traits@D@std@@V?$allocator@D@2@@std@@AEAV12@@?$_Default_allocator_traits@V?$allocator@V?$basic_string@DU?$char_traits@D@std@@V?$allocator@D@2@@std@@@std@@@std@@SAXAEAV?$allocator@V?$basic_string@DU?$char_traits@D@std@@V?$allocator@D@2@@std@@@1@QEAV?$basic_string@DU?$char_traits@D@std@@V?$allocator@D@2@@1@AEAV31@@Z
	??$construct@V?$basic_string@DU?$char_traits@D@std@@V?$allocator@D@2@@std@@AEBV12@@?$_Default_allocator_traits@V?$allocator@V?$basic_string@DU?$char_traits@D@std@@V?$allocator@D@2@@std@@@std@@@std@@SAXAEAV?$allocator@V?$basic_string@DU?$char_traits@D@std@@V?$allocator@D@2@@std@@@1@QEAV?$basic_string@DU?$char_traits@D@std@@V?$allocator@D@2@@1@AEBV31@@Z
	??$construct@V?$basic_string@DU?$char_traits@D@std@@V?$allocator@D@2@@std@@V12@@?$_Default_allocator_traits@V?$allocator@V?$basic_string@DU?$char_traits@D@std@@V?$allocator@D@2@@std@@@std@@@std@@SAXAEAV?$allocator@V?$basic_string@DU?$char_traits@D@std@@V?$allocator@D@2@@std@@@1@QEAV?$basic_string@DU?$char_traits@D@std@@V?$allocator@D@2@@1@$$QEAV31@@Z
	??$construct@V?$buffer_view@D@mqtt@@V12@@?$_Default_allocator_traits@V?$allocator@V?$buffer_view@D@mqtt@@@std@@@std@@SAXAEAV?$allocator@V?$buffer_view@D@mqtt@@@1@QEAV?$buffer_view@D@mqtt@@$$QEAV34@@Z
	??$construct@V?$shared_ptr@$$CBVmessage@mqtt@@@std@@V12@@?$_Default_allocator_traits@V?$allocator@V?$shared_ptr@$$CBVmessage@mqtt@@@std@@@std@@@std@@SAXAEAV?$allocator@V?$shared_ptr@$$CBVmessage@mqtt@@@std@@@1@QEAV?$shared_ptr@$$CBVmessage@mqtt@@@1@$$QEAV31@@Z
	??$construct@V?$shared_ptr@Vdelivery_token@mqtt@@@std@@AEBV12@@?$_Default_allocator_traits@V?$allocator@U?$_List_node@V?$shared_ptr@Vdelivery_token@mqtt@@@std@@PEAX@std@@@std@@@std@@SAXAEAV?$allocator@U?$_List_node@V?$shared_ptr@Vdelivery_token@mqtt@@@std@@PEAX@std@@@1@QEAV?$shared_ptr@Vdelivery_token@mqtt@@@1@AEBV31@@Z
	??$construct@V?$shared_ptr@Vdelivery_token@mqtt@@@std@@AEBV12@@?$_Default_allocator_traits@V?$allocator@V?$shared_ptr@Vdelivery_token@mqtt@@@std@@@std@@@std@@SAXAEAV?$allocator@V?$shared_ptr@Vdelivery_token@mqtt@@@std@@@1@QEAV?$shared_ptr@Vdelivery_token@mqtt@@@1@AEBV31@@Z
	??$construct@V?$shared_ptr@Vdelivery_token@mqtt@@@std@@V12@@?$_Default_allocator_traits@V?$allocator@V?$shared_ptr@Vdelivery_token@mqtt@@@std@@@std@@@std@@SAXAEAV?$allocator@V?$shared_ptr@Vdelivery_token@mqtt@@@std@@@1@QEAV?$shared_ptr@Vdelivery_token@mqtt@@@1@$$QEAV31@@Z
	??$construct@V?$shared_ptr@Vtoken@mqtt@@@std@@AEBV12@@?$_Default_allocator_traits@V?$allocator@U?$_List_node@V?$shared_ptr@Vtoken@mqtt@@@std@@PEAX@std@@@std@@@std@@SAXAEAV?$allocator@U?$_List_node@V?$shared_ptr@Vtoken@mqtt@@@std@@PEAX@std@@@1@QEAV?$shared_ptr@Vtoken@mqtt@@@1@AEBV31@@Z
	??$construct@W4ReasonCode@mqtt@@W412@@?$_Default_allocator_traits@V?$allocator@W4ReasonCode@mqtt@@@std@@@std@@SAXAEAV?$allocator@W4ReasonCode@mqtt@@@1@QEAW4ReasonCode@mqtt@@$$QEAW434@@Z
	??$create_task@V<lambda_16db0a518715f6321653a25f2424e302>@@@Concurrency@@YA?AV?$task@X@0@V<lambda_16db0a518715f6321653a25f2424e302>@@Vtask_options@0@@Z
	??$create_task@V<lambda_a28169bf5ada89786cdd03ccb91074b7>@@@Concurrency@@YA?AV?$task@X@0@V<lambda_a28169bf5ada89786cdd03ccb91074b7>@@Vtask_options@0@@Z
	??$destroy@PEAD@?$_Default_allocator_traits@V?$allocator@D@std@@@std@@SAXAEAV?$allocator@D@1@QEAPEAD@Z
	??$destroy@PEAU?$_List_node@V?$shared_ptr@Vdelivery_token@mqtt@@@std@@PEAX@std@@@?$_Default_allocator_traits@V?$allocator@U?$_List_node@V?$shared_ptr@Vdelivery_token@mqtt@@@std@@PEAX@std@@@std@@@std@@SAXAEAV?$allocator@U?$_List_node@V?$shared_ptr@Vdelivery_token@mqtt@@@std@@PEAX@std@@@1@QEAPEAU?$_List_node@V?$shared_ptr@Vdelivery_token@mqtt@@@std@@PEAX@1@@Z
	??$destroy@PEAU?$_List_node@V?$shared_ptr@Vtoken@mqtt@@@std@@PEAX@std@@@?$_Default_allocator_traits@V?$allocator@U?$_List_node@V?$shared_ptr@Vtoken@mqtt@@@std@@PEAX@std@@@std@@@std@@SAXAEAV?$allocator@U?$_List_node@V?$shared_ptr@Vtoken@mqtt@@@std@@PEAX@std@@@1@QEAPEAU?$_List_node@V?$shared_ptr@Vtoken@mqtt@@@std@@PEAX@1@@Z
	??$destroy@PEAV?$shared_ptr@$$CBVmessage@mqtt@@@std@@@?$_Default_allocator_traits@V?$allocator@PEAV?$shared_ptr@$$CBVmessage@mqtt@@@std@@@std@@@std@@SAXAEAV?$allocator@PEAV?$shared_ptr@$$CBVmessage@mqtt@@@std@@@1@QEAPEAV?$shared_ptr@$$CBVmessage@mqtt@@@1@@Z
	??$destroy@U_Container_proxy@std@@@?$_Default_allocator_traits@V?$allocator@U_Container_proxy@std@@@std@@@std@@SAXAEAV?$allocator@U_Container_proxy@std@@@1@QEAU_Container_proxy@1@@Z
	??$destroy@V?$basic_string@DU?$char_traits@D@std@@V?$allocator@D@2@@std@@@?$_Default_allocator_traits@V?$allocator@V?$basic_string@DU?$char_traits@D@std@@V?$allocator@D@2@@std@@@std@@@std@@SAXAEAV?$allocator@V?$basic_string@DU?$char_traits@D@std@@V?$allocator@D@2@@std@@@1@QEAV?$basic_string@DU?$char_traits@D@std@@V?$allocator@D@2@@1@@Z
	??$destroy@V?$shared_ptr@$$CBVmessage@mqtt@@@std@@@?$_Default_allocator_traits@V?$allocator@V?$shared_ptr@$$CBVmessage@mqtt@@@std@@@std@@@std@@SAXAEAV?$allocator@V?$shared_ptr@$$CBVmessage@mqtt@@@std@@@1@QEAV?$shared_ptr@$$CBVmessage@mqtt@@@1@@Z
	??$destroy@V?$shared_ptr@Vdelivery_token@mqtt@@@std@@@?$_Default_allocator_traits@V?$allocator@U?$_List_node@V?$shared_ptr@Vdelivery_token@mqtt@@@std@@PEAX@std@@@std@@@std@@SAXAEAV?$allocator@U?$_List_node@V?$shared_ptr@Vdelivery_token@mqtt@@@std@@PEAX@std@@@1@QEAV?$shared_ptr@Vdelivery_token@mqtt@@@1@@Z
	??$destroy@V?$shared_ptr@Vdelivery_token@mqtt@@@std@@@?$_Default_allocator_traits@V?$allocator@V?$shared_ptr@Vdelivery_token@mqtt@@@std@@@std@@@std@@SAXAEAV?$allocator@V?$shared_ptr@Vdelivery_token@mqtt@@@std@@@1@QEAV?$shared_ptr@Vdelivery_token@mqtt@@@1@@Z
	??$destroy@V?$shared_ptr@Vtoken@mqtt@@@std@@@?$_Default_allocator_traits@V?$allocator@U?$_List_node@V?$shared_ptr@Vtoken@mqtt@@@std@@PEAX@std@@@std@@@std@@SAXAEAV?$allocator@U?$_List_node@V?$shared_ptr@Vtoken@mqtt@@@std@@PEAX@std@@@1@QEAV?$shared_ptr@Vtoken@mqtt@@@1@@Z
	??$distance@PEAPEAX@std@@YA_JPEAPEAX0@Z
	??$distance@PEAV?$basic_string@DU?$char_traits@D@std@@V?$allocator@D@2@@std@@@std@@YA_JPEAV?$basic_string@DU?$char_traits@D@std@@V?$allocator@D@2@@0@0@Z
	??$distance@PEBV?$basic_string@DU?$char_traits@D@std@@V?$allocator@D@2@@std@@@std@@YA_JPEBV?$basic_string@DU?$char_traits@D@std@@V?$allocator@D@2@@0@0@Z
	??$duration_cast@V?$duration@NU?$ratio@$00$0DLJKMKAA@@std@@@chrono@std@@NU?$ratio@$00$00@3@X@chrono@std@@YA?AV?$duration@NU?$ratio@$00$0DLJKMKAA@@std@@@01@AEBV?$duration@NU?$ratio@$00$00@std@@@01@@Z
	??$duration_cast@V?$duration@NU?$ratio@$00$0DLJKMKAA@@std@@@chrono@std@@_JU?$ratio@$00$0DLJKMKAA@@3@X@chrono@std@@YA?AV?$duration@NU?$ratio@$00$0DLJKMKAA@@std@@@01@AEBV?$duration@_JU?$ratio@$00$0DLJKMKAA@@std@@@01@@Z
	??$duration_cast@V?$duration@_JU?$ratio@$00$00@std@@@chrono@std@@_JU?$ratio@$00$0DLJKMKAA@@3@X@chrono@std@@YA?AV?$duration@_JU?$ratio@$00$00@std@@@01@AEBV?$duration@_JU?$ratio@$00$0DLJKMKAA@@std@@@01@@Z
	??$duration_cast@V?$duration@_JU?$ratio@$00$0DLJKMKAA@@std@@@chrono@std@@_JU?$ratio@$00$00@3@X@chrono@std@@YA?AV?$duration@_JU?$ratio@$00$0DLJKMKAA@@std@@@01@AEBV?$duration@_JU?$ratio@$00$00@std@@@01@@Z
	??$duration_cast@V?$duration@_JU?$ratio@$00$0DLJKMKAA@@std@@@chrono@std@@_JU?$ratio@$00$0DLJKMKAA@@3@X@chrono@std@@YA?AV?$duration@_JU?$ratio@$00$0DLJKMKAA@@std@@@01@AEBV201@@Z
	??$duration_cast@V?$duration@_JU?$ratio@$00$0DLJKMKAA@@std@@@chrono@std@@_JU?$ratio@$00$0DOI@@3@X@chrono@std@@YA?AV?$duration@_JU?$ratio@$00$0DLJKMKAA@@std@@@01@AEBV?$duration@_JU?$ratio@$00$0DOI@@std@@@01@@Z
	??$duration_cast@V?$duration@_JU?$ratio@$00$0DLJKMKAA@@std@@@chrono@std@@_JU?$ratio@$00$0JIJGIA@@3@X@chrono@std@@YA?AV?$duration@_JU?$ratio@$00$0DLJKMKAA@@std@@@01@AEBV?$duration@_JU?$ratio@$00$0JIJGIA@@std@@@01@@Z
	??$duration_cast@V?$duration@_JU?$ratio@$00$0DOI@@std@@@chrono@std@@HU?$ratio@$0DM@$00@3@X@chrono@std@@YA?AV?$duration@_JU?$ratio@$00$0DOI@@std@@@01@AEBV?$duration@HU?$ratio@$0DM@$00@std@@@01@@Z
	??$emplace@V?$shared_ptr@$$CBVmessage@mqtt@@@std@@@?$queue@V?$shared_ptr@$$CBVmessage@mqtt@@@std@@V?$deque@V?$shared_ptr@$$CBVmessage@mqtt@@@std@@V?$allocator@V?$shared_ptr@$$CBVmessage@mqtt@@@std@@@2@@2@@std@@QEAAX$$QEAV?$shared_ptr@$$CBVmessage@mqtt@@@1@@Z
	??$emplace_back@AEBH@?$vector@HV?$allocator@H@std@@@std@@QEAAXAEBH@Z
	??$emplace_back@AEBUMQTTSubscribe_options@@@?$vector@UMQTTSubscribe_options@@V?$allocator@UMQTTSubscribe_options@@@std@@@std@@QEAAXAEBUMQTTSubscribe_options@@@Z
	??$emplace_back@AEBV?$basic_string@DU?$char_traits@D@std@@V?$allocator@D@2@@std@@@?$vector@V?$basic_string@DU?$char_traits@D@std@@V?$allocator@D@2@@std@@V?$allocator@V?$basic_string@DU?$char_traits@D@std@@V?$allocator@D@2@@std@@@2@@std@@QEAAXAEBV?$basic_string@DU?$char_traits@D@std@@V?$allocator@D@2@@1@@Z
	??$emplace_back@AEBV?$shared_ptr@Vdelivery_token@mqtt@@@std@@@?$vector@V?$shared_ptr@Vdelivery_token@mqtt@@@std@@V?$allocator@V?$shared_ptr@Vdelivery_token@mqtt@@@std@@@2@@std@@QEAAXAEBV?$shared_ptr@Vdelivery_token@mqtt@@@1@@Z
	??$emplace_back@PEBD@?$vector@PEBDV?$allocator@PEBD@std@@@std@@QEAAX$$QEAPEBD@Z
	??$emplace_back@V?$basic_string@DU?$char_traits@D@std@@V?$allocator@D@2@@std@@@?$vector@V?$basic_string@DU?$char_traits@D@std@@V?$allocator@D@2@@std@@V?$allocator@V?$basic_string@DU?$char_traits@D@std@@V?$allocator@D@2@@std@@@2@@std@@QEAAX$$QEAV?$basic_string@DU?$char_traits@D@std@@V?$allocator@D@2@@1@@Z
	??$emplace_back@V?$buffer_view@D@mqtt@@@?$vector@V?$buffer_view@D@mqtt@@V?$allocator@V?$buffer_view@D@mqtt@@@std@@@std@@QEAAX$$QEAV?$buffer_view@D@mqtt@@@Z
	??$emplace_back@V?$shared_ptr@$$CBVmessage@mqtt@@@std@@@?$deque@V?$shared_ptr@$$CBVmessage@mqtt@@@std@@V?$allocator@V?$shared_ptr@$$CBVmessage@mqtt@@@std@@@2@@std@@QEAAX$$QEAV?$shared_ptr@$$CBVmessage@mqtt@@@1@@Z
	??$emplace_back@W4ReasonCode@mqtt@@@?$vector@W4ReasonCode@mqtt@@V?$allocator@W4ReasonCode@mqtt@@@std@@@std@@QEAAX$$QEAW4ReasonCode@mqtt@@@Z
	??$end@D$0BF@@std@@YAPEADAEAY0BF@D@Z
	??$exchange@PEAU?$_List_node@V?$shared_ptr@Vdelivery_token@mqtt@@@std@@PEAX@std@@$$T@std@@YAPEAU?$_List_node@V?$shared_ptr@Vdelivery_token@mqtt@@@std@@PEAX@0@AEAPEAU10@$$QEA$$T@Z
	??$exchange@PEAU?$_List_node@V?$shared_ptr@Vdelivery_token@mqtt@@@std@@PEAX@std@@PEAU12@@std@@YAPEAU?$_List_node@V?$shared_ptr@Vdelivery_token@mqtt@@@std@@PEAX@0@AEAPEAU10@$$QEAPEAU10@@Z
	??$exchange@PEAU?$_List_node@V?$shared_ptr@Vtoken@mqtt@@@std@@PEAX@std@@$$T@std@@YAPEAU?$_List_node@V?$shared_ptr@Vtoken@mqtt@@@std@@PEAX@0@AEAPEAU10@$$QEA$$T@Z
	??$exchange@PEAU?$_List_node@V?$shared_ptr@Vtoken@mqtt@@@std@@PEAX@std@@PEAU12@@std@@YAPEAU?$_List_node@V?$shared_ptr@Vtoken@mqtt@@@std@@PEAX@0@AEAPEAU10@$$QEAPEAU10@@Z
	??$exchange@PEAUMQTTClient_persistence@@AEAPEAU1@@std@@YAPEAUMQTTClient_persistence@@AEAPEAU1@0@Z
	??$exchange@PEAU_Container_proxy@std@@$$T@std@@YAPEAU_Container_proxy@0@AEAPEAU10@$$QEA$$T@Z
	??$exchange@PEAUsubscribe_response@mqtt@@AEAPEAU12@@std@@YAPEAUsubscribe_response@mqtt@@AEAPEAU12@0@Z
	??$exchange@PEAV?$thread_queue@V?$shared_ptr@$$CBVmessage@mqtt@@@std@@V?$deque@V?$shared_ptr@$$CBVmessage@mqtt@@@std@@V?$allocator@V?$shared_ptr@$$CBVmessage@mqtt@@@std@@@2@@2@@mqtt@@AEAPEAV12@@std@@YAPEAV?$thread_queue@V?$shared_ptr@$$CBVmessage@mqtt@@@std@@V?$deque@V?$shared_ptr@$$CBVmessage@mqtt@@@std@@V?$allocator@V?$shared_ptr@$$CBVmessage@mqtt@@@std@@@2@@2@@mqtt@@AEAPEAV12@0@Z
	??$exchange@PEAVconnect_response@mqtt@@AEAPEAV12@@std@@YAPEAVconnect_response@mqtt@@AEAPEAV12@0@Z
	??$exchange@PEAVunsubscribe_response@mqtt@@AEAPEAV12@@std@@YAPEAVunsubscribe_response@mqtt@@AEAPEAV12@0@Z
	??$exchange@PEAX$$T@std@@YAPEAXAEAPEAX$$QEA$$T@Z
	??$forward@$$QEAP8callback@mqtt@@EAAXAEBV?$basic_string@DU?$char_traits@D@std@@V?$allocator@D@2@@std@@@Z@std@@YA$$QEAP8callback@mqtt@@EAAXAEBV?$basic_string@DU?$char_traits@D@std@@V?$allocator@D@2@@0@@ZAEAP812@EAAX0@Z@Z
	??$forward@$$QEAP8callback@mqtt@@EAAXV?$shared_ptr@Vdelivery_token@mqtt@@@std@@@Z@std@@YA$$QEAP8callback@mqtt@@EAAXV?$shared_ptr@Vdelivery_token@mqtt@@@0@@ZAEAP812@EAAX0@Z@Z
	??$forward@$$QEAPEAVcallback@mqtt@@@std@@YA$$QEAPEAVcallback@mqtt@@AEAPEAV12@@Z
	??$forward@$$QEAV<lambda_0e64988457575224279dcb6d61e61bdd>@@@std@@YA$$QEAV<lambda_0e64988457575224279dcb6d61e61bdd>@@AEAV1@@Z
	??$forward@$$QEAV?$basic_string@DU?$char_traits@D@std@@V?$allocator@D@2@@std@@@std@@YA$$QEAV?$basic_string@DU?$char_traits@D@std@@V?$allocator@D@2@@0@AEAV10@@Z
	??$forward@$$QEAV?$shared_ptr@Vdelivery_token@mqtt@@@std@@@std@@YA$$QEAV?$shared_ptr@Vdelivery_token@mqtt@@@0@AEAV10@@Z
	??$forward@AEAH@std@@YAAEAHAEAH@Z
	??$forward@AEAPEAU?$_List_node@V?$shared_ptr@Vdelivery_token@mqtt@@@std@@PEAX@std@@@std@@YAAEAPEAU?$_List_node@V?$shared_ptr@Vdelivery_token@mqtt@@@std@@PEAX@0@AEAPEAU10@@Z
	??$forward@AEAPEAU?$_List_node@V?$shared_ptr@Vtoken@mqtt@@@std@@PEAX@std@@@std@@YAAEAPEAU?$_List_node@V?$shared_ptr@Vtoken@mqtt@@@std@@PEAX@0@AEAPEAU10@@Z
	??$forward@AEAPEAU_TaskProcHandle@details@Concurrency@@@std@@YAAEAPEAU_TaskProcHandle@details@Concurrency@@AEAPEAU123@@Z
	??$forward@AEAPEAV_CancellationTokenState@details@Concurrency@@@std@@YAAEAPEAV_CancellationTokenState@details@Concurrency@@AEAPEAV123@@Z
	??$forward@AEAPEAV_PPLTaskChore@_DefaultPPLTaskScheduler@details@Concurrency@@@std@@YAAEAPEAV_PPLTaskChore@_DefaultPPLTaskScheduler@details@Concurrency@@AEAPEAV1234@@Z
	??$forward@AEAPEAVcallback@mqtt@@@std@@YAAEAPEAVcallback@mqtt@@AEAPEAV12@@Z
	??$forward@AEAPEAVmessage@mqtt@@@std@@YAAEAPEAVmessage@mqtt@@AEAPEAV12@@Z
	??$forward@AEAPEAVstring_collection@mqtt@@@std@@YAAEAPEAVstring_collection@mqtt@@AEAPEAV12@@Z
	??$forward@AEAPEAX@std@@YAAEAPEAXAEAPEAX@Z
	??$forward@AEAPEBD@std@@YAAEAPEBDAEAPEBD@Z
	??$forward@AEAPEBX@std@@YAAEAPEBXAEAPEBX@Z
	??$forward@AEAUscheduler_ptr@Concurrency@@@std@@YAAEAUscheduler_ptr@Concurrency@@AEAU12@@Z
	??$forward@AEAV<lambda_052e919cc0e5399df76dff3972c0cac1>@@@std@@YAAEAV<lambda_052e919cc0e5399df76dff3972c0cac1>@@AEAV1@@Z
	??$forward@AEAV<lambda_16db0a518715f6321653a25f2424e302>@@@std@@YAAEAV<lambda_16db0a518715f6321653a25f2424e302>@@AEAV1@@Z
	??$forward@AEAV<lambda_713ee8bbd6b08550d59c52695cab5ce3>@@@std@@YAAEAV<lambda_713ee8bbd6b08550d59c52695cab5ce3>@@AEAV1@@Z
	??$forward@AEAV<lambda_763529b0c7473cbc215a52d189ac9b18>@@@std@@YAAEAV<lambda_763529b0c7473cbc215a52d189ac9b18>@@AEAV1@@Z
	??$forward@AEAV<lambda_a28169bf5ada89786cdd03ccb91074b7>@@@std@@YAAEAV<lambda_a28169bf5ada89786cdd03ccb91074b7>@@AEAV1@@Z
	??$forward@AEAV<lambda_f25c37099038263181b5186a3fa41b37>@@@std@@YAAEAV<lambda_f25c37099038263181b5186a3fa41b37>@@AEAV1@@Z
	??$forward@AEAV?$_Fake_no_copy_callable_adapter@P8callback@mqtt@@EAAXAEBV?$basic_string@DU?$char_traits@D@std@@V?$allocator@D@2@@std@@@ZAEAPEAV12@AEBV34@@std@@@std@@YAAEAV?$_Fake_no_copy_callable_adapter@P8callback@mqtt@@EAAXAEBV?$basic_string@DU?$char_traits@D@std@@V?$allocator@D@2@@std@@@ZAEAPEAV12@AEBV34@@0@AEAV10@@Z
	??$forward@AEAV?$_Fake_no_copy_callable_adapter@P8callback@mqtt@@EAAXV?$shared_ptr@Vdelivery_token@mqtt@@@std@@@ZAEAPEAV12@AEAV34@@std@@@std@@YAAEAV?$_Fake_no_copy_callable_adapter@P8callback@mqtt@@EAAXV?$shared_ptr@Vdelivery_token@mqtt@@@std@@@ZAEAPEAV12@AEAV34@@0@AEAV10@@Z
	??$forward@AEAV?$basic_string@DU?$char_traits@D@std@@V?$allocator@D@2@@std@@@std@@YAAEAV?$basic_string@DU?$char_traits@D@std@@V?$allocator@D@2@@0@AEAV10@@Z
	??$forward@AEAV?$shared_ptr@$$CBVmessage@mqtt@@@std@@@std@@YAAEAV?$shared_ptr@$$CBVmessage@mqtt@@@0@AEAV10@@Z
	??$forward@AEAV?$shared_ptr@$$CBVstring_collection@mqtt@@@std@@@std@@YAAEAV?$shared_ptr@$$CBVstring_collection@mqtt@@@0@AEAV10@@Z
	??$forward@AEAV?$shared_ptr@Vdelivery_token@mqtt@@@std@@@std@@YAAEAV?$shared_ptr@Vdelivery_token@mqtt@@@0@AEAV10@@Z
	??$forward@AEAVexception_ptr@std@@@std@@YAAEAVexception_ptr@0@AEAV10@@Z
	??$forward@AEAViaction_listener@mqtt@@@std@@YAAEAViaction_listener@mqtt@@AEAV12@@Z
	??$forward@AEAViasync_client@mqtt@@@std@@YAAEAViasync_client@mqtt@@AEAV12@@Z
	??$forward@AEAW4Type@token@mqtt@@@std@@YAAEAW4Type@token@mqtt@@AEAW4123@@Z
	??$forward@AEA_K@std@@YAAEA_KAEA_K@Z
	??$forward@AEA_N@std@@YAAEA_NAEA_N@Z
	??$forward@AEBH@std@@YAAEBHAEBH@Z
	??$forward@AEBQEAD@std@@YAAEBQEADAEBQEAD@Z
	??$forward@AEBQEAU?$_List_node@V?$shared_ptr@Vdelivery_token@mqtt@@@std@@PEAX@std@@@std@@YAAEBQEAU?$_List_node@V?$shared_ptr@Vdelivery_token@mqtt@@@std@@PEAX@0@AEBQEAU10@@Z
	??$forward@AEBQEAU?$_List_node@V?$shared_ptr@Vtoken@mqtt@@@std@@PEAX@std@@@std@@YAAEBQEAU?$_List_node@V?$shared_ptr@Vtoken@mqtt@@@std@@PEAX@0@AEBQEAU10@@Z
	??$forward@AEBUMQTTAsync_message@@@std@@YAAEBUMQTTAsync_message@@AEBU1@@Z
	??$forward@AEBUMQTTSubscribe_options@@@std@@YAAEBUMQTTSubscribe_options@@AEBU1@@Z
	??$forward@AEBV<lambda_052e919cc0e5399df76dff3972c0cac1>@@@std@@YAAEBV<lambda_052e919cc0e5399df76dff3972c0cac1>@@AEBV1@@Z
	??$forward@AEBV<lambda_16db0a518715f6321653a25f2424e302>@@@std@@YAAEBV<lambda_16db0a518715f6321653a25f2424e302>@@AEBV1@@Z
	??$forward@AEBV<lambda_713ee8bbd6b08550d59c52695cab5ce3>@@@std@@YAAEBV<lambda_713ee8bbd6b08550d59c52695cab5ce3>@@AEBV1@@Z
	??$forward@AEBV<lambda_763529b0c7473cbc215a52d189ac9b18>@@@std@@YAAEBV<lambda_763529b0c7473cbc215a52d189ac9b18>@@AEBV1@@Z
	??$forward@AEBV<lambda_a28169bf5ada89786cdd03ccb91074b7>@@@std@@YAAEBV<lambda_a28169bf5ada89786cdd03ccb91074b7>@@AEBV1@@Z
	??$forward@AEBV<lambda_f25c37099038263181b5186a3fa41b37>@@@std@@YAAEBV<lambda_f25c37099038263181b5186a3fa41b37>@@AEBV1@@Z
	??$forward@AEBV?$_Fake_no_copy_callable_adapter@P8callback@mqtt@@EAAXAEBV?$basic_string@DU?$char_traits@D@std@@V?$allocator@D@2@@std@@@ZAEAPEAV12@AEBV34@@std@@@std@@YAAEBV?$_Fake_no_copy_callable_adapter@P8callback@mqtt@@EAAXAEBV?$basic_string@DU?$char_traits@D@std@@V?$allocator@D@2@@std@@@ZAEAPEAV12@AEBV34@@0@AEBV10@@Z
	??$forward@AEBV?$_Fake_no_copy_callable_adapter@P8callback@mqtt@@EAAXV?$shared_ptr@Vdelivery_token@mqtt@@@std@@@ZAEAPEAV12@AEAV34@@std@@@std@@YAAEBV?$_Fake_no_copy_callable_adapter@P8callback@mqtt@@EAAXV?$shared_ptr@Vdelivery_token@mqtt@@@std@@@ZAEAPEAV12@AEAV34@@0@AEBV10@@Z
	??$forward@AEBV?$allocator@D@std@@@std@@YAAEBV?$allocator@D@0@AEBV10@@Z
	??$forward@AEBV?$allocator@V?$basic_string@DU?$char_traits@D@std@@V?$allocator@D@2@@std@@@std@@@std@@YAAEBV?$allocator@V?$basic_string@DU?$char_traits@D@std@@V?$allocator@D@2@@std@@@0@AEBV10@@Z
	??$forward@AEBV?$basic_string@DU?$char_traits@D@std@@V?$allocator@D@2@@std@@@std@@YAAEBV?$basic_string@DU?$char_traits@D@std@@V?$allocator@D@2@@0@AEBV10@@Z
	??$forward@AEBV?$shared_ptr@Vdelivery_token@mqtt@@@std@@@std@@YAAEBV?$shared_ptr@Vdelivery_token@mqtt@@@0@AEBV10@@Z
	??$forward@AEBV?$shared_ptr@Vtoken@mqtt@@@std@@@std@@YAAEBV?$shared_ptr@Vtoken@mqtt@@@0@AEBV10@@Z
	??$forward@AEBVexception_ptr@std@@@std@@YAAEBVexception_ptr@0@AEBV10@@Z
	??$forward@H@std@@YA$$QEAHAEAH@Z
	??$forward@P8callback@mqtt@@EAAXAEBV?$basic_string@DU?$char_traits@D@std@@V?$allocator@D@2@@std@@@Z@std@@YA$$QEAP8callback@mqtt@@EAAXAEBV?$basic_string@DU?$char_traits@D@std@@V?$allocator@D@2@@0@@ZAEAP812@EAAX0@Z@Z
	??$forward@P8callback@mqtt@@EAAXV?$shared_ptr@Vdelivery_token@mqtt@@@std@@@Z@std@@YA$$QEAP8callback@mqtt@@EAAXV?$shared_ptr@Vdelivery_token@mqtt@@@0@@ZAEAP812@EAAX0@Z@Z
	??$forward@PEAU_Container_base12@std@@@std@@YA$$QEAPEAU_Container_base12@0@AEAPEAU10@@Z
	??$forward@PEAVcallback@mqtt@@@std@@YA$$QEAPEAVcallback@mqtt@@AEAPEAV12@@Z
	??$forward@PEBD@std@@YA$$QEAPEBDAEAPEBD@Z
	??$forward@V<lambda_052e919cc0e5399df76dff3972c0cac1>@@@std@@YA$$QEAV<lambda_052e919cc0e5399df76dff3972c0cac1>@@AEAV1@@Z
	??$forward@V<lambda_0e64988457575224279dcb6d61e61bdd>@@@std@@YA$$QEAV<lambda_0e64988457575224279dcb6d61e61bdd>@@AEAV1@@Z
	??$forward@V<lambda_16db0a518715f6321653a25f2424e302>@@@std@@YA$$QEAV<lambda_16db0a518715f6321653a25f2424e302>@@AEAV1@@Z
	??$forward@V<lambda_4d9f54b62c80a46497c8ee29775a19d4>@@@std@@YA$$QEAV<lambda_4d9f54b62c80a46497c8ee29775a19d4>@@AEAV1@@Z
	??$forward@V<lambda_682f2f383c70f45f1f9b18ee8e8227fb>@@@std@@YA$$QEAV<lambda_682f2f383c70f45f1f9b18ee8e8227fb>@@AEAV1@@Z
	??$forward@V<lambda_713ee8bbd6b08550d59c52695cab5ce3>@@@std@@YA$$QEAV<lambda_713ee8bbd6b08550d59c52695cab5ce3>@@AEAV1@@Z
	??$forward@V<lambda_763529b0c7473cbc215a52d189ac9b18>@@@std@@YA$$QEAV<lambda_763529b0c7473cbc215a52d189ac9b18>@@AEAV1@@Z
	??$forward@V<lambda_a28169bf5ada89786cdd03ccb91074b7>@@@std@@YA$$QEAV<lambda_a28169bf5ada89786cdd03ccb91074b7>@@AEAV1@@Z
	??$forward@V<lambda_f25c37099038263181b5186a3fa41b37>@@@std@@YA$$QEAV<lambda_f25c37099038263181b5186a3fa41b37>@@AEAV1@@Z
	??$forward@V?$_Fake_no_copy_callable_adapter@P8callback@mqtt@@EAAXAEBV?$basic_string@DU?$char_traits@D@std@@V?$allocator@D@2@@std@@@ZAEAPEAV12@AEBV34@@std@@@std@@YA$$QEAV?$_Fake_no_copy_callable_adapter@P8callback@mqtt@@EAAXAEBV?$basic_string@DU?$char_traits@D@std@@V?$allocator@D@2@@std@@@ZAEAPEAV12@AEBV34@@0@AEAV10@@Z
	??$forward@V?$_Fake_no_copy_callable_adapter@P8callback@mqtt@@EAAXV?$shared_ptr@Vdelivery_token@mqtt@@@std@@@ZAEAPEAV12@AEAV34@@std@@@std@@YA$$QEAV?$_Fake_no_copy_callable_adapter@P8callback@mqtt@@EAAXV?$shared_ptr@Vdelivery_token@mqtt@@@std@@@ZAEAPEAV12@AEAV34@@0@AEAV10@@Z
	??$forward@V?$allocator@D@std@@@std@@YA$$QEAV?$allocator@D@0@AEAV10@@Z
	??$forward@V?$allocator@PEAX@std@@@std@@YA$$QEAV?$allocator@PEAX@0@AEAV10@@Z
	??$forward@V?$allocator@V?$basic_string@DU?$char_traits@D@std@@V?$allocator@D@2@@std@@@std@@@std@@YA$$QEAV?$allocator@V?$basic_string@DU?$char_traits@D@std@@V?$allocator@D@2@@std@@@0@AEAV10@@Z
	??$forward@V?$allocator@V?$shared_ptr@Vdelivery_token@mqtt@@@std@@@std@@@std@@YA$$QEAV?$allocator@V?$shared_ptr@Vdelivery_token@mqtt@@@std@@@0@AEAV10@@Z
	??$forward@V?$allocator@W4ReasonCode@mqtt@@@std@@@std@@YA$$QEAV?$allocator@W4ReasonCode@mqtt@@@0@AEAV10@@Z
	??$forward@V?$basic_string@DU?$char_traits@D@std@@V?$allocator@D@2@@std@@@std@@YA$$QEAV?$basic_string@DU?$char_traits@D@std@@V?$allocator@D@2@@0@AEAV10@@Z
	??$forward@V?$buffer_ref@D@mqtt@@@std@@YA$$QEAV?$buffer_ref@D@mqtt@@AEAV12@@Z
	??$forward@V?$buffer_view@D@mqtt@@@std@@YA$$QEAV?$buffer_view@D@mqtt@@AEAV12@@Z
	??$forward@V?$shared_ptr@$$CBVmessage@mqtt@@@std@@@std@@YA$$QEAV?$shared_ptr@$$CBVmessage@mqtt@@@0@AEAV10@@Z
	??$forward@V?$shared_ptr@Vdelivery_token@mqtt@@@std@@@std@@YA$$QEAV?$shared_ptr@Vdelivery_token@mqtt@@@0@AEAV10@@Z
	??$forward@V_TaskCreationCallstack@details@Concurrency@@@std@@YA$$QEAV_TaskCreationCallstack@details@Concurrency@@AEAV123@@Z
	??$forward@W4ReasonCode@mqtt@@@std@@YA$$QEAW4ReasonCode@mqtt@@AEAW412@@Z
	??$get@$00$$QEAV<lambda_0e64988457575224279dcb6d61e61bdd>@@AEAVexception_ptr@std@@@std@@YAAEAVexception_ptr@0@AEAV?$tuple@$$QEAV<lambda_0e64988457575224279dcb6d61e61bdd>@@AEAVexception_ptr@std@@@0@@Z
	??$get@$00P8callback@mqtt@@EAAXAEBV?$basic_string@DU?$char_traits@D@std@@V?$allocator@D@2@@std@@@ZPEAV12@V34@@std@@YA$$QEAPEAVcallback@mqtt@@$$QEAV?$tuple@P8callback@mqtt@@EAAXAEBV?$basic_string@DU?$char_traits@D@std@@V?$allocator@D@2@@std@@@ZPEAV12@V34@@0@@Z
	??$get@$00P8callback@mqtt@@EAAXV?$shared_ptr@Vdelivery_token@mqtt@@@std@@@ZPEAV12@V34@@std@@YA$$QEAPEAVcallback@mqtt@@$$QEAV?$tuple@P8callback@mqtt@@EAAXV?$shared_ptr@Vdelivery_token@mqtt@@@std@@@ZPEAV12@V34@@0@@Z
	??$get@$01P8callback@mqtt@@EAAXAEBV?$basic_string@DU?$char_traits@D@std@@V?$allocator@D@2@@std@@@ZPEAV12@V34@@std@@YA$$QEAV?$basic_string@DU?$char_traits@D@std@@V?$allocator@D@2@@0@$$QEAV?$tuple@P8callback@mqtt@@EAAXAEBV?$basic_string@DU?$char_traits@D@std@@V?$allocator@D@2@@std@@@ZPEAV12@V34@@0@@Z
	??$get@$01P8callback@mqtt@@EAAXV?$shared_ptr@Vdelivery_token@mqtt@@@std@@@ZPEAV12@V34@@std@@YA$$QEAV?$shared_ptr@Vdelivery_token@mqtt@@@0@$$QEAV?$tuple@P8callback@mqtt@@EAAXV?$shared_ptr@Vdelivery_token@mqtt@@@std@@@ZPEAV12@V34@@0@@Z
	??$get@$0A@$$QEAV<lambda_0e64988457575224279dcb6d61e61bdd>@@AEAVexception_ptr@std@@@std@@YA$$QEAV<lambda_0e64988457575224279dcb6d61e61bdd>@@$$QEAV?$tuple@$$QEAV<lambda_0e64988457575224279dcb6d61e61bdd>@@AEAVexception_ptr@std@@@0@@Z
	??$get@$0A@P8callback@mqtt@@EAAXAEBV?$basic_string@DU?$char_traits@D@std@@V?$allocator@D@2@@std@@@ZPEAV12@V34@@std@@YA$$QEAP8callback@mqtt@@EAAXAEBV?$basic_string@DU?$char_traits@D@std@@V?$allocator@D@2@@0@@Z$$QEAV?$tuple@P8callback@mqtt@@EAAXAEBV?$basic_string@DU?$char_traits@D@std@@V?$allocator@D@2@@std@@@ZPEAV12@V34@@0@@Z
	??$get@$0A@P8callback@mqtt@@EAAXV?$shared_ptr@Vdelivery_token@mqtt@@@std@@@ZPEAV12@V34@@std@@YA$$QEAP8callback@mqtt@@EAAXV?$shared_ptr@Vdelivery_token@mqtt@@@0@@Z$$QEAV?$tuple@P8callback@mqtt@@EAAXV?$shared_ptr@Vdelivery_token@mqtt@@@std@@@ZPEAV12@V34@@0@@Z
	??$invoke@AEAV<lambda_052e919cc0e5399df76dff3972c0cac1>@@$$V@std@@YAEAEAV<lambda_052e919cc0e5399df76dff3972c0cac1>@@@Z
	??$invoke@AEAV<lambda_16db0a518715f6321653a25f2424e302>@@$$V@std@@YAXAEAV<lambda_16db0a518715f6321653a25f2424e302>@@@Z
	??$invoke@AEAV<lambda_713ee8bbd6b08550d59c52695cab5ce3>@@$$V@std@@YAXAEAV<lambda_713ee8bbd6b08550d59c52695cab5ce3>@@@Z
	??$invoke@AEAV<lambda_763529b0c7473cbc215a52d189ac9b18>@@$$V@std@@YAXAEAV<lambda_763529b0c7473cbc215a52d189ac9b18>@@@Z
	??$invoke@AEAV<lambda_a28169bf5ada89786cdd03ccb91074b7>@@$$V@std@@YAXAEAV<lambda_a28169bf5ada89786cdd03ccb91074b7>@@@Z
	??$invoke@AEAV<lambda_f25c37099038263181b5186a3fa41b37>@@$$V@std@@YAXAEAV<lambda_f25c37099038263181b5186a3fa41b37>@@@Z
	??$invoke@AEAV?$_Fake_no_copy_callable_adapter@P8callback@mqtt@@EAAXAEBV?$basic_string@DU?$char_traits@D@std@@V?$allocator@D@2@@std@@@ZAEAPEAV12@AEBV34@@std@@$$V@std@@YAXAEAV?$_Fake_no_copy_callable_adapter@P8callback@mqtt@@EAAXAEBV?$basic_string@DU?$char_traits@D@std@@V?$allocator@D@2@@std@@@ZAEAPEAV12@AEBV34@@0@@Z
	??$invoke@AEAV?$_Fake_no_copy_callable_adapter@P8callback@mqtt@@EAAXV?$shared_ptr@Vdelivery_token@mqtt@@@std@@@ZAEAPEAV12@AEAV34@@std@@$$V@std@@YAXAEAV?$_Fake_no_copy_callable_adapter@P8callback@mqtt@@EAAXV?$shared_ptr@Vdelivery_token@mqtt@@@std@@@ZAEAPEAV12@AEAV34@@0@@Z
	??$invoke@P8callback@mqtt@@EAAXAEBV?$basic_string@DU?$char_traits@D@std@@V?$allocator@D@2@@std@@@ZPEAV12@V34@@std@@YAX$$QEAP8callback@mqtt@@EAAXAEBV?$basic_string@DU?$char_traits@D@std@@V?$allocator@D@2@@0@@Z$$QEAPEAV12@$$QEAV30@@Z
	??$invoke@P8callback@mqtt@@EAAXV?$shared_ptr@Vdelivery_token@mqtt@@@std@@@ZPEAV12@V34@@std@@YAX$$QEAP8callback@mqtt@@EAAXV?$shared_ptr@Vdelivery_token@mqtt@@@0@@Z$$QEAPEAV12@$$QEAV30@@Z
	??$invoke@V<lambda_0e64988457575224279dcb6d61e61bdd>@@$$V@std@@YAX$$QEAV<lambda_0e64988457575224279dcb6d61e61bdd>@@@Z
	??$make_shared@U?$_Task_impl@E@details@Concurrency@@AEAPEAV_CancellationTokenState@23@AEAUscheduler_ptr@3@@std@@YA?AV?$shared_ptr@U?$_Task_impl@E@details@Concurrency@@@0@AEAPEAV_CancellationTokenState@details@Concurrency@@AEAUscheduler_ptr@4@@Z
	??$make_shared@U_ExceptionHolder@details@Concurrency@@AEBVexception_ptr@std@@V_TaskCreationCallstack@23@@std@@YA?AV?$shared_ptr@U_ExceptionHolder@details@Concurrency@@@0@AEBVexception_ptr@0@$$QEAV_TaskCreationCallstack@details@Concurrency@@@Z
	??$make_shared@V?$basic_string@DU?$char_traits@D@std@@V?$allocator@D@2@@std@@AEAPEBDAEA_K@std@@YA?AV?$shared_ptr@V?$basic_string@DU?$char_traits@D@std@@V?$allocator@D@2@@std@@@0@AEAPEBDAEA_K@Z
	??$make_shared@V?$basic_string@DU?$char_traits@D@std@@V?$allocator@D@2@@std@@AEBV12@@std@@YA?AV?$shared_ptr@V?$basic_string@DU?$char_traits@D@std@@V?$allocator@D@2@@std@@@0@AEBV?$basic_string@DU?$char_traits@D@std@@V?$allocator@D@2@@0@@Z
	??$make_shared@V?$basic_string@DU?$char_traits@D@std@@V?$allocator@D@2@@std@@V12@@std@@YA?AV?$shared_ptr@V?$basic_string@DU?$char_traits@D@std@@V?$allocator@D@2@@std@@@0@$$QEAV?$basic_string@DU?$char_traits@D@std@@V?$allocator@D@2@@0@@Z
	??$make_shared@Vdelivery_token@mqtt@@AEAViasync_client@2@AEAV?$shared_ptr@$$CBVmessage@mqtt@@@std@@@std@@YA?AV?$shared_ptr@Vdelivery_token@mqtt@@@0@AEAViasync_client@mqtt@@AEAV?$shared_ptr@$$CBVmessage@mqtt@@@0@@Z
	??$make_shared@Vdelivery_token@mqtt@@AEAViasync_client@2@AEAV?$shared_ptr@$$CBVmessage@mqtt@@@std@@AEAPEAXAEAViaction_listener@2@@std@@YA?AV?$shared_ptr@Vdelivery_token@mqtt@@@0@AEAViasync_client@mqtt@@AEAV?$shared_ptr@$$CBVmessage@mqtt@@@0@AEAPEAXAEAViaction_listener@3@@Z
	??$make_shared@Vmessage@mqtt@@V?$buffer_ref@D@2@AEAPEBXAEA_KAEAHAEA_N@std@@YA?AV?$shared_ptr@Vmessage@mqtt@@@0@$$QEAV?$buffer_ref@D@mqtt@@AEAPEBXAEA_KAEAHAEA_N@Z
	??$make_shared@Vmessage@mqtt@@V?$buffer_ref@D@2@AEBUMQTTAsync_message@@@std@@YA?AV?$shared_ptr@Vmessage@mqtt@@@0@$$QEAV?$buffer_ref@D@mqtt@@AEBUMQTTAsync_message@@@Z
	??$make_shared@Vmessage@mqtt@@V?$buffer_ref@D@2@V32@AEAHAEA_N@std@@YA?AV?$shared_ptr@Vmessage@mqtt@@@0@$$QEAV?$buffer_ref@D@mqtt@@0AEAHAEA_N@Z
	??$make_shared@Vstring_collection@mqtt@@AEBV?$basic_string@DU?$char_traits@D@std@@V?$allocator@D@2@@std@@@std@@YA?AV?$shared_ptr@Vstring_collection@mqtt@@@0@AEBV?$basic_string@DU?$char_traits@D@std@@V?$allocator@D@2@@0@@Z
	??$make_shared@Vtoken@mqtt@@AEAW4Type@12@AEAViasync_client@2@@std@@YA?AV?$shared_ptr@Vtoken@mqtt@@@0@AEAW4Type@token@mqtt@@AEAViasync_client@4@@Z
	??$make_shared@Vtoken@mqtt@@AEAW4Type@12@AEAViasync_client@2@AEAPEAXAEAViaction_listener@2@@std@@YA?AV?$shared_ptr@Vtoken@mqtt@@@0@AEAW4Type@token@mqtt@@AEAViasync_client@4@AEAPEAXAEAViaction_listener@4@@Z
	??$make_shared@Vtoken@mqtt@@AEAW4Type@12@AEAViasync_client@2@AEAV?$shared_ptr@$$CBVstring_collection@mqtt@@@std@@@std@@YA?AV?$shared_ptr@Vtoken@mqtt@@@0@AEAW4Type@token@mqtt@@AEAViasync_client@4@AEAV?$shared_ptr@$$CBVstring_collection@mqtt@@@0@@Z
	??$make_shared@Vtoken@mqtt@@AEAW4Type@12@AEAViasync_client@2@AEAV?$shared_ptr@$$CBVstring_collection@mqtt@@@std@@AEAPEAXAEAViaction_listener@2@@std@@YA?AV?$shared_ptr@Vtoken@mqtt@@@0@AEAW4Type@token@mqtt@@AEAViasync_client@4@AEAV?$shared_ptr@$$CBVstring_collection@mqtt@@@0@AEAPEAXAEAViaction_listener@4@@Z
	??$make_shared@Vtoken@mqtt@@AEAW4Type@12@AEAViasync_client@2@AEBV?$basic_string@DU?$char_traits@D@std@@V?$allocator@D@2@@std@@@std@@YA?AV?$shared_ptr@Vtoken@mqtt@@@0@AEAW4Type@token@mqtt@@AEAViasync_client@4@AEBV?$basic_string@DU?$char_traits@D@std@@V?$allocator@D@2@@0@@Z
	??$make_shared@Vtoken@mqtt@@AEAW4Type@12@AEAViasync_client@2@AEBV?$basic_string@DU?$char_traits@D@std@@V?$allocator@D@2@@std@@AEAPEAXAEAViaction_listener@2@@std@@YA?AV?$shared_ptr@Vtoken@mqtt@@@0@AEAW4Type@token@mqtt@@AEAViasync_client@4@AEBV?$basic_string@DU?$char_traits@D@std@@V?$allocator@D@2@@0@AEAPEAXAEAViaction_listener@4@@Z
	??$move@AEAPEAU?$_Task_impl@E@details@Concurrency@@@std@@YA$$QEAPEAU?$_Task_impl@E@details@Concurrency@@AEAPEAU123@@Z
	??$move@AEAPEAU_ExceptionHolder@details@Concurrency@@@std@@YA$$QEAPEAU_ExceptionHolder@details@Concurrency@@AEAPEAU123@@Z
	??$move@AEAPEAV_Ref_count_base@std@@@std@@YA$$QEAPEAV_Ref_count_base@0@AEAPEAV10@@Z
	??$move@AEAPEAVdelivery_token@mqtt@@@std@@YA$$QEAPEAVdelivery_token@mqtt@@AEAPEAV12@@Z
	??$move@AEAPEAVtoken@mqtt@@@std@@YA$$QEAPEAVtoken@mqtt@@AEAPEAV12@@Z
	??$move@AEAPEBD@std@@YA$$QEAPEBDAEAPEBD@Z
	??$move@AEAPEBV?$basic_string@DU?$char_traits@D@std@@V?$allocator@D@2@@std@@@std@@YA$$QEAPEBV?$basic_string@DU?$char_traits@D@std@@V?$allocator@D@2@@0@AEAPEBV10@@Z
	??$move@AEAPEBVstring_collection@mqtt@@@std@@YA$$QEAPEBVstring_collection@mqtt@@AEAPEBV12@@Z
	??$move@AEAV<lambda_052e919cc0e5399df76dff3972c0cac1>@@@std@@YA$$QEAV<lambda_052e919cc0e5399df76dff3972c0cac1>@@AEAV1@@Z
	??$move@AEAV<lambda_16db0a518715f6321653a25f2424e302>@@@std@@YA$$QEAV<lambda_16db0a518715f6321653a25f2424e302>@@AEAV1@@Z
	??$move@AEAV<lambda_4d9f54b62c80a46497c8ee29775a19d4>@@@std@@YA$$QEAV<lambda_4d9f54b62c80a46497c8ee29775a19d4>@@AEAV1@@Z
	??$move@AEAV<lambda_682f2f383c70f45f1f9b18ee8e8227fb>@@@std@@YA$$QEAV<lambda_682f2f383c70f45f1f9b18ee8e8227fb>@@AEAV1@@Z
	??$move@AEAV<lambda_713ee8bbd6b08550d59c52695cab5ce3>@@@std@@YA$$QEAV<lambda_713ee8bbd6b08550d59c52695cab5ce3>@@AEAV1@@Z
	??$move@AEAV<lambda_763529b0c7473cbc215a52d189ac9b18>@@@std@@YA$$QEAV<lambda_763529b0c7473cbc215a52d189ac9b18>@@AEAV1@@Z
	??$move@AEAV<lambda_a28169bf5ada89786cdd03ccb91074b7>@@@std@@YA$$QEAV<lambda_a28169bf5ada89786cdd03ccb91074b7>@@AEAV1@@Z
	??$move@AEAV<lambda_f25c37099038263181b5186a3fa41b37>@@@std@@YA$$QEAV<lambda_f25c37099038263181b5186a3fa41b37>@@AEAV1@@Z
	??$move@AEAV?$_Fake_no_copy_callable_adapter@P8callback@mqtt@@EAAXAEBV?$basic_string@DU?$char_traits@D@std@@V?$allocator@D@2@@std@@@ZAEAPEAV12@AEBV34@@std@@@std@@YA$$QEAV?$_Fake_no_copy_callable_adapter@P8callback@mqtt@@EAAXAEBV?$basic_string@DU?$char_traits@D@std@@V?$allocator@D@2@@std@@@ZAEAPEAV12@AEBV34@@0@AEAV10@@Z
	??$move@AEAV?$_Fake_no_copy_callable_adapter@P8callback@mqtt@@EAAXV?$shared_ptr@Vdelivery_token@mqtt@@@std@@@ZAEAPEAV12@AEAV34@@std@@@std@@YA$$QEAV?$_Fake_no_copy_callable_adapter@P8callback@mqtt@@EAAXV?$shared_ptr@Vdelivery_token@mqtt@@@std@@@ZAEAPEAV12@AEAV34@@0@AEAV10@@Z
	??$move@AEAV?$_Func_class@XAEBV?$basic_string@DU?$char_traits@D@std@@V?$allocator@D@2@@std@@@std@@@std@@YA$$QEAV?$_Func_class@XAEBV?$basic_string@DU?$char_traits@D@std@@V?$allocator@D@2@@std@@@0@AEAV10@@Z
	??$move@AEAV?$_Func_class@XV?$shared_ptr@$$CBVmessage@mqtt@@@std@@@std@@@std@@YA$$QEAV?$_Func_class@XV?$shared_ptr@$$CBVmessage@mqtt@@@std@@@0@AEAV10@@Z
	??$move@AEAV?$allocator@D@std@@@std@@YA$$QEAV?$allocator@D@0@AEAV10@@Z
	??$move@AEAV?$allocator@PEAX@std@@@std@@YA$$QEAV?$allocator@PEAX@0@AEAV10@@Z
	??$move@AEAV?$allocator@V?$basic_string@DU?$char_traits@D@std@@V?$allocator@D@2@@std@@@std@@@std@@YA$$QEAV?$allocator@V?$basic_string@DU?$char_traits@D@std@@V?$allocator@D@2@@std@@@0@AEAV10@@Z
	??$move@AEAV?$allocator@V?$shared_ptr@Vdelivery_token@mqtt@@@std@@@std@@@std@@YA$$QEAV?$allocator@V?$shared_ptr@Vdelivery_token@mqtt@@@std@@@0@AEAV10@@Z
	??$move@AEAV?$basic_string@DU?$char_traits@D@std@@V?$allocator@D@2@@std@@@std@@YA$$QEAV?$basic_string@DU?$char_traits@D@std@@V?$allocator@D@2@@0@AEAV10@@Z
	??$move@AEAV?$buffer_ref@D@mqtt@@@std@@YA$$QEAV?$buffer_ref@D@mqtt@@AEAV12@@Z
	??$move@AEAV?$buffer_view@D@mqtt@@@std@@YA$$QEAV?$buffer_view@D@mqtt@@AEAV12@@Z
	??$move@AEAV?$shared_ptr@$$CBV?$basic_string@DU?$char_traits@D@std@@V?$allocator@D@2@@std@@@std@@@std@@YA$$QEAV?$shared_ptr@$$CBV?$basic_string@DU?$char_traits@D@std@@V?$allocator@D@2@@std@@@0@AEAV10@@Z
	??$move@AEAV?$shared_ptr@$$CBVmessage@mqtt@@@std@@@std@@YA$$QEAV?$shared_ptr@$$CBVmessage@mqtt@@@0@AEAV10@@Z
	??$move@AEAV?$shared_ptr@$$CBVstring_collection@mqtt@@@std@@@std@@YA$$QEAV?$shared_ptr@$$CBVstring_collection@mqtt@@@0@AEAV10@@Z
	??$move@AEAV?$shared_ptr@U?$_Task_impl@E@details@Concurrency@@@std@@@std@@YA$$QEAV?$shared_ptr@U?$_Task_impl@E@details@Concurrency@@@0@AEAV10@@Z
	??$move@AEAV?$shared_ptr@U_ExceptionHolder@details@Concurrency@@@std@@@std@@YA$$QEAV?$shared_ptr@U_ExceptionHolder@details@Concurrency@@@0@AEAV10@@Z
	??$move@AEAV?$shared_ptr@U_Task_impl_base@details@Concurrency@@@std@@@std@@YA$$QEAV?$shared_ptr@U_Task_impl_base@details@Concurrency@@@0@AEAV10@@Z
	??$move@AEAV?$shared_ptr@Uscheduler_interface@Concurrency@@@std@@@std@@YA$$QEAV?$shared_ptr@Uscheduler_interface@Concurrency@@@0@AEAV10@@Z
	??$move@AEAV?$shared_ptr@V?$basic_string@DU?$char_traits@D@std@@V?$allocator@D@2@@std@@@std@@@std@@YA$$QEAV?$shared_ptr@V?$basic_string@DU?$char_traits@D@std@@V?$allocator@D@2@@std@@@0@AEAV10@@Z
	??$move@AEAV?$shared_ptr@Vdelivery_token@mqtt@@@std@@@std@@YA$$QEAV?$shared_ptr@Vdelivery_token@mqtt@@@0@AEAV10@@Z
	??$move@AEAV?$shared_ptr@Vmessage@mqtt@@@std@@@std@@YA$$QEAV?$shared_ptr@Vmessage@mqtt@@@0@AEAV10@@Z
	??$move@AEAV?$shared_ptr@Vstring_collection@mqtt@@@std@@@std@@YA$$QEAV?$shared_ptr@Vstring_collection@mqtt@@@0@AEAV10@@Z
	??$move@AEAV?$shared_ptr@Vtoken@mqtt@@@std@@@std@@YA$$QEAV?$shared_ptr@Vtoken@mqtt@@@0@AEAV10@@Z
	??$move@AEAV?$task@E@Concurrency@@@std@@YA$$QEAV?$task@E@Concurrency@@AEAV12@@Z
	??$move@AEAV?$tuple@$$QEAV<lambda_0e64988457575224279dcb6d61e61bdd>@@AEAVexception_ptr@std@@@std@@@std@@YA$$QEAV?$tuple@$$QEAV<lambda_0e64988457575224279dcb6d61e61bdd>@@AEAVexception_ptr@std@@@0@AEAV10@@Z
	??$move@AEAV?$tuple@P8callback@mqtt@@EAAXAEBV?$basic_string@DU?$char_traits@D@std@@V?$allocator@D@2@@std@@@ZPEAV12@V34@@std@@@std@@YA$$QEAV?$tuple@P8callback@mqtt@@EAAXAEBV?$basic_string@DU?$char_traits@D@std@@V?$allocator@D@2@@std@@@ZPEAV12@V34@@0@AEAV10@@Z
	??$move@AEAV?$tuple@P8callback@mqtt@@EAAXV?$shared_ptr@Vdelivery_token@mqtt@@@std@@@ZPEAV12@V34@@std@@@std@@YA$$QEAV?$tuple@P8callback@mqtt@@EAAXV?$shared_ptr@Vdelivery_token@mqtt@@@std@@@ZPEAV12@V34@@0@AEAV10@@Z
	??$move@AEAV?$vector@V?$basic_string@DU?$char_traits@D@std@@V?$allocator@D@2@@std@@V?$allocator@V?$basic_string@DU?$char_traits@D@std@@V?$allocator@D@2@@std@@@2@@std@@@std@@YA$$QEAV?$vector@V?$basic_string@DU?$char_traits@D@std@@V?$allocator@D@2@@std@@V?$allocator@V?$basic_string@DU?$char_traits@D@std@@V?$allocator@D@2@@std@@@2@@0@AEAV10@@Z
	??$move@AEAVconnect_options@mqtt@@@std@@YA$$QEAVconnect_options@mqtt@@AEAV12@@Z
	??$move@AEAVproperties@mqtt@@@std@@YA$$QEAVproperties@mqtt@@AEAV12@@Z
	??$move@AEAVssl_options@mqtt@@@std@@YA$$QEAVssl_options@mqtt@@AEAV12@@Z
	??$move@AEAVwill_options@mqtt@@@std@@YA$$QEAVwill_options@mqtt@@AEAV12@@Z
	??$move@AEAW4ReasonCode@mqtt@@@std@@YA$$QEAW4ReasonCode@mqtt@@AEAW412@@Z
	??$next@PEAV?$basic_string@DU?$char_traits@D@std@@V?$allocator@D@2@@std@@@std@@YAPEAV?$basic_string@DU?$char_traits@D@std@@V?$allocator@D@2@@0@PEAV10@_J@Z
	??$ptr@Vmessage@mqtt@@@client@mqtt@@AEAA?AV?$shared_ptr@Vmessage@mqtt@@@std@@AEBVmessage@1@@Z
	??$ptr@Vstring_collection@mqtt@@@client@mqtt@@AEAA?AV?$shared_ptr@Vstring_collection@mqtt@@@std@@AEBVstring_collection@1@@Z
	??$swap@PEAU?$_Task_impl@E@details@Concurrency@@X@std@@YAXAEAPEAU?$_Task_impl@E@details@Concurrency@@0@Z
	??$swap@PEAU_ExceptionHolder@details@Concurrency@@X@std@@YAXAEAPEAU_ExceptionHolder@details@Concurrency@@0@Z
	??$swap@PEAV_Ref_count_base@std@@X@std@@YAXAEAPEAV_Ref_count_base@0@0@Z
	??$swap@PEAVdelivery_token@mqtt@@X@std@@YAXAEAPEAVdelivery_token@mqtt@@0@Z
	??$swap@PEAVtoken@mqtt@@X@std@@YAXAEAPEAVtoken@mqtt@@0@Z
	??$swap@PEBV?$basic_string@DU?$char_traits@D@std@@V?$allocator@D@2@@std@@X@std@@YAXAEAPEBV?$basic_string@DU?$char_traits@D@std@@V?$allocator@D@2@@0@0@Z
	??$swap@PEBVstring_collection@mqtt@@X@std@@YAXAEAPEBVstring_collection@mqtt@@0@Z
	??$wait@V<lambda_8e92e37d8b3d280b71634fbe88d54901>@@@condition_variable@std@@QEAAXAEAV?$unique_lock@Vmutex@std@@@1@V<lambda_8e92e37d8b3d280b71634fbe88d54901>@@@Z
	??$wait@V<lambda_a1eabba02874cbf8cbb226c45133fc37>@@@condition_variable@std@@QEAAXAEAV?$unique_lock@Vmutex@std@@@1@V<lambda_a1eabba02874cbf8cbb226c45133fc37>@@@Z
	??$wait_for@_JU?$ratio@$00$0DOI@@std@@@token@mqtt@@QEAA_NAEBV?$duration@_JU?$ratio@$00$0DOI@@std@@@chrono@std@@@Z
	??$wait_for@_JU?$ratio@$00$0DOI@@std@@V<lambda_8753e8241f2a5a762f79a862fae56c72>@@@condition_variable@std@@QEAA_NAEAV?$unique_lock@Vmutex@std@@@1@AEBV?$duration@_JU?$ratio@$00$0DOI@@std@@@chrono@1@V<lambda_8753e8241f2a5a762f79a862fae56c72>@@@Z
	??0<lambda_052e919cc0e5399df76dff3972c0cac1>@@QEAA@$$QEAV0@@Z
	??0<lambda_052e919cc0e5399df76dff3972c0cac1>@@QEAA@AEBV0@@Z
	??0<lambda_052e919cc0e5399df76dff3972c0cac1>@@QEAA@AEBV?$function@$$A6AXXZ@std@@@Z
	??0<lambda_16db0a518715f6321653a25f2424e302>@@QEAA@QEAV?$_Task_async_state@X@std@@@Z
	??0<lambda_713ee8bbd6b08550d59c52695cab5ce3>@@QEAA@AEBQEAU_ContinuationTaskHandleBase@details@Concurrency@@@Z
	??0<lambda_763529b0c7473cbc215a52d189ac9b18>@@QEAA@QEAU?$_Task_impl@E@details@Concurrency@@@Z
	??0<lambda_8753e8241f2a5a762f79a862fae56c72>@@QEAA@QEAVtoken@mqtt@@@Z
	??0<lambda_8e92e37d8b3d280b71634fbe88d54901>@@QEAA@QEAV?$thread_queue@V?$shared_ptr@$$CBVmessage@mqtt@@@std@@V?$deque@V?$shared_ptr@$$CBVmessage@mqtt@@@std@@V?$allocator@V?$shared_ptr@$$CBVmessage@mqtt@@@std@@@2@@2@@mqtt@@@Z
	??0<lambda_a1eabba02874cbf8cbb226c45133fc37>@@QEAA@AEBQEAV_CancellationTokenRegistration@details@Concurrency@@@Z
	??0<lambda_a28169bf5ada89786cdd03ccb91074b7>@@QEAA@QEAV?$_Task_async_state@X@std@@@Z
	??0<lambda_be3e5d9dce35d2c8dbfa8485373731d5>@@QEAA@AEBV0@@Z
	??0<lambda_be3e5d9dce35d2c8dbfa8485373731d5>@@QEAA@AEBV?$weak_ptr@U_Task_impl_base@details@Concurrency@@@std@@@Z
	??0<lambda_f25c37099038263181b5186a3fa41b37>@@QEAA@$$QEAV0@@Z
	??0<lambda_f25c37099038263181b5186a3fa41b37>@@QEAA@AEBQEAU_ContinuationTaskHandleBase@details@Concurrency@@AEBV?$shared_ptr@U_Task_impl_base@details@Concurrency@@@std@@@Z
	??0<lambda_f25c37099038263181b5186a3fa41b37>@@QEAA@AEBV0@@Z
	??0?$_Alloc_construct_ptr@V?$allocator@U?$_List_node@V?$shared_ptr@Vdelivery_token@mqtt@@@std@@PEAX@std@@@std@@@std@@QEAA@AEAV?$allocator@U?$_List_node@V?$shared_ptr@Vdelivery_token@mqtt@@@std@@PEAX@std@@@1@@Z
	??0?$_Alloc_construct_ptr@V?$allocator@U?$_List_node@V?$shared_ptr@Vtoken@mqtt@@@std@@PEAX@std@@@std@@@std@@QEAA@AEAV?$allocator@U?$_List_node@V?$shared_ptr@Vtoken@mqtt@@@std@@PEAX@std@@@1@@Z
	??0?$_Associated_state@H@std@@QEAA@PEAU?$_Deleter_base@H@1@@Z
	??0?$_Atomic_integral@J$03@std@@QEAA@J@Z
	??0?$_Atomic_integral_facade@J@std@@QEAA@J@Z
	??0?$_Atomic_storage@J$03@std@@QEAA@J@Z
	??0?$_CancellationTokenCallback@V<lambda_be3e5d9dce35d2c8dbfa8485373731d5>@@@details@Concurrency@@QEAA@AEBV<lambda_be3e5d9dce35d2c8dbfa8485373731d5>@@@Z
	??0?$_Container_proxy_ptr12@V?$allocator@U_Container_proxy@std@@@std@@@std@@QEAA@AEAV?$allocator@U_Container_proxy@std@@@1@AEAU_Container_base12@1@@Z
	??0?$_Deque_val@U?$_Deque_simple_types@V?$shared_ptr@$$CBVmessage@mqtt@@@std@@@std@@@std@@QEAA@XZ
	??0?$_Fake_no_copy_callable_adapter@P8callback@mqtt@@EAAXAEBV?$basic_string@DU?$char_traits@D@std@@V?$allocator@D@2@@std@@@ZAEAPEAV12@AEBV34@@std@@QEAA@$$QEAP8callback@mqtt@@EAAXAEBV?$basic_string@DU?$char_traits@D@std@@V?$allocator@D@2@@1@@ZAEAPEAV23@0@Z
	??0?$_Fake_no_copy_callable_adapter@P8callback@mqtt@@EAAXAEBV?$basic_string@DU?$char_traits@D@std@@V?$allocator@D@2@@std@@@ZAEAPEAV12@AEBV34@@std@@QEAA@$$QEAV01@@Z
	??0?$_Fake_no_copy_callable_adapter@P8callback@mqtt@@EAAXAEBV?$basic_string@DU?$char_traits@D@std@@V?$allocator@D@2@@std@@@ZAEAPEAV12@AEBV34@@std@@QEAA@AEBV01@@Z
	??0?$_Fake_no_copy_callable_adapter@P8callback@mqtt@@EAAXV?$shared_ptr@Vdelivery_token@mqtt@@@std@@@ZAEAPEAV12@AEAV34@@std@@QEAA@$$QEAP8callback@mqtt@@EAAXV?$shared_ptr@Vdelivery_token@mqtt@@@1@@ZAEAPEAV23@AEAV41@@Z
	??0?$_Fake_no_copy_callable_adapter@P8callback@mqtt@@EAAXV?$shared_ptr@Vdelivery_token@mqtt@@@std@@@ZAEAPEAV12@AEAV34@@std@@QEAA@$$QEAV01@@Z
	??0?$_Fake_no_copy_callable_adapter@P8callback@mqtt@@EAAXV?$shared_ptr@Vdelivery_token@mqtt@@@std@@@ZAEAPEAV12@AEAV34@@std@@QEAA@AEBV01@@Z
	??0?$_Func_base@E$$V@std@@QEAA@XZ
	??0?$_Func_base@X$$V@std@@QEAA@XZ
	??0?$_Func_class@E$$V@std@@QEAA@XZ
	??0?$_Func_class@X$$V@std@@QEAA@XZ
	??0?$_Func_class@XAEBV?$basic_string@DU?$char_traits@D@std@@V?$allocator@D@2@@std@@@std@@QEAA@XZ
	??0?$_Func_class@XV?$shared_ptr@$$CBVmessage@mqtt@@@std@@@std@@QEAA@XZ
	??0?$_InitialTaskHandle@XV<lambda_16db0a518715f6321653a25f2424e302>@@U_TypeSelectorNoAsync@details@Concurrency@@@?$task@E@Concurrency@@QEAA@AEBV?$shared_ptr@U?$_Task_impl@E@details@Concurrency@@@std@@AEBV<lambda_16db0a518715f6321653a25f2424e302>@@@Z
	??0?$_InitialTaskHandle@XV<lambda_a28169bf5ada89786cdd03ccb91074b7>@@U_TypeSelectorNoAsync@details@Concurrency@@@?$task@E@Concurrency@@QEAA@AEBV?$shared_ptr@U?$_Task_impl@E@details@Concurrency@@@std@@AEBV<lambda_a28169bf5ada89786cdd03ccb91074b7>@@@Z
	??0?$_List_const_iterator@V?$_List_val@U?$_List_simple_types@V?$shared_ptr@Vdelivery_token@mqtt@@@std@@@std@@@std@@@std@@QEAA@$$QEAV01@@Z
	??0?$_List_const_iterator@V?$_List_val@U?$_List_simple_types@V?$shared_ptr@Vdelivery_token@mqtt@@@std@@@std@@@std@@@std@@QEAA@AEBV01@@Z
	??0?$_List_const_iterator@V?$_List_val@U?$_List_simple_types@V?$shared_ptr@Vdelivery_token@mqtt@@@std@@@std@@@std@@@std@@QEAA@PEAU?$_List_node@V?$shared_ptr@Vdelivery_token@mqtt@@@std@@PEAX@1@PEBV?$_List_val@U?$_List_simple_types@V?$shared_ptr@Vdelivery_token@mqtt@@@std@@@std@@@1@@Z
	??0?$_List_const_iterator@V?$_List_val@U?$_List_simple_types@V?$shared_ptr@Vtoken@mqtt@@@std@@@std@@@std@@@std@@QEAA@$$QEAV01@@Z
	??0?$_List_const_iterator@V?$_List_val@U?$_List_simple_types@V?$shared_ptr@Vtoken@mqtt@@@std@@@std@@@std@@@std@@QEAA@AEBV01@@Z
	??0?$_List_const_iterator@V?$_List_val@U?$_List_simple_types@V?$shared_ptr@Vtoken@mqtt@@@std@@@std@@@std@@@std@@QEAA@PEAU?$_List_node@V?$shared_ptr@Vtoken@mqtt@@@std@@PEAX@1@PEBV?$_List_val@U?$_List_simple_types@V?$shared_ptr@Vtoken@mqtt@@@std@@@std@@@1@@Z
	??0?$_List_iterator@V?$_List_val@U?$_List_simple_types@V?$shared_ptr@Vdelivery_token@mqtt@@@std@@@std@@@std@@@std@@QEAA@PEAU?$_List_node@V?$shared_ptr@Vdelivery_token@mqtt@@@std@@PEAX@1@PEBV?$_List_val@U?$_List_simple_types@V?$shared_ptr@Vdelivery_token@mqtt@@@std@@@std@@@1@@Z
	??0?$_List_iterator@V?$_List_val@U?$_List_simple_types@V?$shared_ptr@Vtoken@mqtt@@@std@@@std@@@std@@@std@@QEAA@PEAU?$_List_node@V?$shared_ptr@Vtoken@mqtt@@@std@@PEAX@1@PEBV?$_List_val@U?$_List_simple_types@V?$shared_ptr@Vtoken@mqtt@@@std@@@std@@@1@@Z
	??0?$_List_node_emplace_op@V?$allocator@U?$_List_node@V?$shared_ptr@Vdelivery_token@mqtt@@@std@@PEAX@std@@@std@@@std@@QEAA@AEAV?$allocator@U?$_List_node@V?$shared_ptr@Vdelivery_token@mqtt@@@std@@PEAX@std@@@1@@Z
	??0?$_List_node_emplace_op@V?$allocator@U?$_List_node@V?$shared_ptr@Vtoken@mqtt@@@std@@PEAX@std@@@std@@@std@@QEAA@AEAV?$allocator@U?$_List_node@V?$shared_ptr@Vtoken@mqtt@@@std@@PEAX@std@@@1@@Z
	??0?$_List_unchecked_const_iterator@V?$_List_val@U?$_List_simple_types@V?$shared_ptr@Vdelivery_token@mqtt@@@std@@@std@@@std@@U_Iterator_base0@2@@std@@QEAA@PEAU?$_List_node@V?$shared_ptr@Vdelivery_token@mqtt@@@std@@PEAX@1@PEBV?$_List_val@U?$_List_simple_types@V?$shared_ptr@Vdelivery_token@mqtt@@@std@@@std@@@1@@Z
	??0?$_List_unchecked_const_iterator@V?$_List_val@U?$_List_simple_types@V?$shared_ptr@Vdelivery_token@mqtt@@@std@@@std@@@std@@U_Iterator_base12@2@@std@@QEAA@$$QEAV01@@Z
	??0?$_List_unchecked_const_iterator@V?$_List_val@U?$_List_simple_types@V?$shared_ptr@Vdelivery_token@mqtt@@@std@@@std@@@std@@U_Iterator_base12@2@@std@@QEAA@AEBV01@@Z
	??0?$_List_unchecked_const_iterator@V?$_List_val@U?$_List_simple_types@V?$shared_ptr@Vdelivery_token@mqtt@@@std@@@std@@@std@@U_Iterator_base12@2@@std@@QEAA@PEAU?$_List_node@V?$shared_ptr@Vdelivery_token@mqtt@@@std@@PEAX@1@PEBV?$_List_val@U?$_List_simple_types@V?$shared_ptr@Vdelivery_token@mqtt@@@std@@@std@@@1@@Z
	??0?$_List_unchecked_const_iterator@V?$_List_val@U?$_List_simple_types@V?$shared_ptr@Vtoken@mqtt@@@std@@@std@@@std@@U_Iterator_base0@2@@std@@QEAA@PEAU?$_List_node@V?$shared_ptr@Vtoken@mqtt@@@std@@PEAX@1@PEBV?$_List_val@U?$_List_simple_types@V?$shared_ptr@Vtoken@mqtt@@@std@@@std@@@1@@Z
	??0?$_List_unchecked_const_iterator@V?$_List_val@U?$_List_simple_types@V?$shared_ptr@Vtoken@mqtt@@@std@@@std@@@std@@U_Iterator_base12@2@@std@@QEAA@$$QEAV01@@Z
	??0?$_List_unchecked_const_iterator@V?$_List_val@U?$_List_simple_types@V?$shared_ptr@Vtoken@mqtt@@@std@@@std@@@std@@U_Iterator_base12@2@@std@@QEAA@AEBV01@@Z
	??0?$_List_unchecked_const_iterator@V?$_List_val@U?$_List_simple_types@V?$shared_ptr@Vtoken@mqtt@@@std@@@std@@@std@@U_Iterator_base12@2@@std@@QEAA@PEAU?$_List_node@V?$shared_ptr@Vtoken@mqtt@@@std@@PEAX@1@PEBV?$_List_val@U?$_List_simple_types@V?$shared_ptr@Vtoken@mqtt@@@std@@@std@@@1@@Z
	??0?$_List_unchecked_iterator@V?$_List_val@U?$_List_simple_types@V?$shared_ptr@Vdelivery_token@mqtt@@@std@@@std@@@std@@@std@@QEAA@PEAU?$_List_node@V?$shared_ptr@Vdelivery_token@mqtt@@@std@@PEAX@1@PEBV?$_List_val@U?$_List_simple_types@V?$shared_ptr@Vdelivery_token@mqtt@@@std@@@std@@@1@@Z
	??0?$_List_unchecked_iterator@V?$_List_val@U?$_List_simple_types@V?$shared_ptr@Vtoken@mqtt@@@std@@@std@@@std@@@std@@QEAA@PEAU?$_List_node@V?$shared_ptr@Vtoken@mqtt@@@std@@PEAX@1@PEBV?$_List_val@U?$_List_simple_types@V?$shared_ptr@Vtoken@mqtt@@@std@@@std@@@1@@Z
	??0?$_List_val@U?$_List_simple_types@V?$shared_ptr@Vdelivery_token@mqtt@@@std@@@std@@@std@@QEAA@XZ
	??0?$_List_val@U?$_List_simple_types@V?$shared_ptr@Vtoken@mqtt@@@std@@@std@@@std@@QEAA@XZ
	??0?$_PPLTaskHandle@EU?$_InitialTaskHandle@XV<lambda_16db0a518715f6321653a25f2424e302>@@U_TypeSelectorNoAsync@details@Concurrency@@@?$task@E@Concurrency@@U_TaskProcHandle@details@3@@details@Concurrency@@QEAA@AEBV?$shared_ptr@U?$_Task_impl@E@details@Concurrency@@@std@@@Z
	??0?$_PPLTaskHandle@EU?$_InitialTaskHandle@XV<lambda_a28169bf5ada89786cdd03ccb91074b7>@@U_TypeSelectorNoAsync@details@Concurrency@@@?$task@E@Concurrency@@U_TaskProcHandle@details@3@@details@Concurrency@@QEAA@AEBV?$shared_ptr@U?$_Task_impl@E@details@Concurrency@@@std@@@Z
	??0?$_Promise@H@std@@QEAA@PEAV?$_Associated_state@H@1@@Z
	??0?$_Ptr_base@$$CBV?$basic_string@DU?$char_traits@D@std@@V?$allocator@D@2@@std@@@std@@IEAA@XZ
	??0?$_Ptr_base@$$CBVmessage@mqtt@@@std@@IEAA@XZ
	??0?$_Ptr_base@$$CBVstring_collection@mqtt@@@std@@IEAA@XZ
	??0?$_Ptr_base@U?$_Task_impl@E@details@Concurrency@@@std@@IEAA@XZ
	??0?$_Ptr_base@U_ExceptionHolder@details@Concurrency@@@std@@IEAA@XZ
	??0?$_Ptr_base@U_Task_impl_base@details@Concurrency@@@std@@IEAA@XZ
	??0?$_Ptr_base@Uscheduler_interface@Concurrency@@@std@@IEAA@XZ
	??0?$_Ptr_base@V?$basic_string@DU?$char_traits@D@std@@V?$allocator@D@2@@std@@@std@@IEAA@XZ
	??0?$_Ptr_base@Vdelivery_token@mqtt@@@std@@IEAA@XZ
	??0?$_Ptr_base@Vmessage@mqtt@@@std@@IEAA@XZ
	??0?$_Ptr_base@Vstring_collection@mqtt@@@std@@IEAA@XZ
	??0?$_Ptr_base@Vtoken@mqtt@@@std@@IEAA@XZ
	??0?$_Ref_count_resource@PEAVmessage@mqtt@@V<lambda_682f2f383c70f45f1f9b18ee8e8227fb>@@@std@@QEAA@PEAVmessage@mqtt@@V<lambda_682f2f383c70f45f1f9b18ee8e8227fb>@@@Z
	??0?$_Ref_count_resource@PEAVstring_collection@mqtt@@V<lambda_4d9f54b62c80a46497c8ee29775a19d4>@@@std@@QEAA@PEAVstring_collection@mqtt@@V<lambda_4d9f54b62c80a46497c8ee29775a19d4>@@@Z
	??0?$_State_manager@H@std@@QEAA@AEBV01@_N@Z
	??0?$_State_manager@H@std@@QEAA@PEAV?$_Associated_state@H@1@_N@Z
	??0?$_String_val@U?$_Simple_types@D@std@@@std@@QEAA@XZ
	??0?$_Task_impl@E@details@Concurrency@@QEAA@PEAV_CancellationTokenState@12@Uscheduler_ptr@2@@Z
	??0?$_Temporary_owner_del@PEAVmessage@mqtt@@V<lambda_682f2f383c70f45f1f9b18ee8e8227fb>@@@std@@QEAA@QEAVmessage@mqtt@@AEAV<lambda_682f2f383c70f45f1f9b18ee8e8227fb>@@@Z
	??0?$_Temporary_owner_del@PEAVstring_collection@mqtt@@V<lambda_4d9f54b62c80a46497c8ee29775a19d4>@@@std@@QEAA@QEAVstring_collection@mqtt@@AEAV<lambda_4d9f54b62c80a46497c8ee29775a19d4>@@@Z
	??0?$_Tuple_val@V?$basic_string@DU?$char_traits@D@std@@V?$allocator@D@2@@std@@@std@@QEAA@$$QEAU01@@Z
	??0?$_Tuple_val@V?$shared_ptr@Vdelivery_token@mqtt@@@std@@@std@@QEAA@$$QEAU01@@Z
	??0?$_Uninitialized_backout_al@V?$allocator@V?$basic_string@DU?$char_traits@D@std@@V?$allocator@D@2@@std@@@std@@@std@@QEAA@PEAV?$basic_string@DU?$char_traits@D@std@@V?$allocator@D@2@@1@AEAV?$allocator@V?$basic_string@DU?$char_traits@D@std@@V?$allocator@D@2@@std@@@1@@Z
	??0?$_Uninitialized_backout_al@V?$allocator@V?$buffer_view@D@mqtt@@@std@@@std@@QEAA@PEAV?$buffer_view@D@mqtt@@AEAV?$allocator@V?$buffer_view@D@mqtt@@@1@@Z
	??0?$_Uninitialized_backout_al@V?$allocator@V?$shared_ptr@Vdelivery_token@mqtt@@@std@@@std@@@std@@QEAA@PEAV?$shared_ptr@Vdelivery_token@mqtt@@@1@AEAV?$allocator@V?$shared_ptr@Vdelivery_token@mqtt@@@std@@@1@@Z
	??0?$_Vector_val@U?$_Simple_types@H@std@@@std@@QEAA@XZ
	??0?$_Vector_val@U?$_Simple_types@PEAX@std@@@std@@QEAA@XZ
	??0?$_Vector_val@U?$_Simple_types@PEBD@std@@@std@@QEAA@XZ
	??0?$_Vector_val@U?$_Simple_types@UMQTTSubscribe_options@@@std@@@std@@QEAA@XZ
	??0?$_Vector_val@U?$_Simple_types@V?$basic_string@DU?$char_traits@D@std@@V?$allocator@D@2@@std@@@std@@@std@@QEAA@XZ
	??0?$_Vector_val@U?$_Simple_types@V?$buffer_view@D@mqtt@@@std@@@std@@QEAA@XZ
	??0?$_Vector_val@U?$_Simple_types@V?$shared_ptr@Vdelivery_token@mqtt@@@std@@@std@@@std@@QEAA@XZ
	??0?$_Vector_val@U?$_Simple_types@Vsubscribe_options@mqtt@@@std@@@std@@QEAA@XZ
	??0?$_Vector_val@U?$_Simple_types@W4ReasonCode@mqtt@@@std@@@std@@QEAA@XZ
	??0?$allocator@D@std@@QEAA@XZ
	??0?$allocator@H@std@@QEAA@XZ
	??0?$allocator@PEAX@std@@QEAA@XZ
	??0?$allocator@PEBD@std@@QEAA@XZ
	??0?$allocator@U?$_List_node@V?$shared_ptr@Vdelivery_token@mqtt@@@std@@PEAX@std@@@std@@QEAA@XZ
	??0?$allocator@U?$_List_node@V?$shared_ptr@Vtoken@mqtt@@@std@@PEAX@std@@@std@@QEAA@XZ
	??0?$allocator@UMQTTSubscribe_options@@@std@@QEAA@XZ
	??0?$allocator@V?$basic_string@DU?$char_traits@D@std@@V?$allocator@D@2@@std@@@std@@QEAA@XZ
	??0?$allocator@V?$buffer_view@D@mqtt@@@std@@QEAA@XZ
	??0?$allocator@V?$shared_ptr@$$CBVmessage@mqtt@@@std@@@std@@QEAA@XZ
	??0?$allocator@V?$shared_ptr@Vdelivery_token@mqtt@@@std@@@std@@QEAA@XZ
	??0?$allocator@Vsubscribe_options@mqtt@@@std@@QEAA@XZ
	??0?$allocator@W4ReasonCode@mqtt@@@std@@QEAA@XZ
	??0?$atomic@J@std@@QEAA@J@Z
	??0?$basic_string@DU?$char_traits@D@std@@V?$allocator@D@2@@std@@QEAA@$$QEAV01@@Z
	??0?$basic_string@DU?$char_traits@D@std@@V?$allocator@D@2@@std@@QEAA@AEBV01@@Z
	??0?$basic_string@DU?$char_traits@D@std@@V?$allocator@D@2@@std@@QEAA@QEBD@Z
	??0?$basic_string@DU?$char_traits@D@std@@V?$allocator@D@2@@std@@QEAA@QEBD_K@Z
	??0?$basic_string@DU?$char_traits@D@std@@V?$allocator@D@2@@std@@QEAA@XZ
	??0?$buffer_ref@D@mqtt@@QEAA@$$QEAV01@@Z
	??0?$buffer_ref@D@mqtt@@QEAA@$$QEAV?$basic_string@DU?$char_traits@D@std@@V?$allocator@D@2@@std@@@Z
	??0?$buffer_ref@D@mqtt@@QEAA@AEBV01@@Z
	??0?$buffer_ref@D@mqtt@@QEAA@AEBV?$basic_string@DU?$char_traits@D@std@@V?$allocator@D@2@@std@@@Z
	??0?$buffer_ref@D@mqtt@@QEAA@PEBD_K@Z
	??0?$buffer_ref@D@mqtt@@QEAA@XZ
	??0?$buffer_view@D@mqtt@@QEAA@PEBD_K@Z
	??0?$deque@V?$shared_ptr@$$CBVmessage@mqtt@@@std@@V?$allocator@V?$shared_ptr@$$CBVmessage@mqtt@@@std@@@2@@std@@QEAA@XZ
	??0?$function@$$A6AXAEBV?$basic_string@DU?$char_traits@D@std@@V?$allocator@D@2@@std@@@Z@std@@QEAA@AEBV01@@Z
	??0?$function@$$A6AXAEBV?$basic_string@DU?$char_traits@D@std@@V?$allocator@D@2@@std@@@Z@std@@QEAA@XZ
	??0?$function@$$A6AXV?$shared_ptr@$$CBVmessage@mqtt@@@std@@@Z@std@@QEAA@AEBV01@@Z
	??0?$function@$$A6AXV?$shared_ptr@$$CBVmessage@mqtt@@@std@@@Z@std@@QEAA@XZ
	??0?$function@$$A6AXXZ@std@@QEAA@AEBV01@@Z
	??0?$function@$$A6AXXZ@std@@QEAA@XZ
	??0?$future@X@std@@QEAA@AEBV?$_State_manager@H@1@U_Nil@1@@Z
	??0?$initializer_list@V?$basic_string@DU?$char_traits@D@std@@V?$allocator@D@2@@std@@@std@@QEAA@PEBV?$basic_string@DU?$char_traits@D@std@@V?$allocator@D@2@@1@0@Z
	??0?$list@V?$shared_ptr@Vdelivery_token@mqtt@@@std@@V?$allocator@V?$shared_ptr@Vdelivery_token@mqtt@@@std@@@2@@std@@QEAA@XZ
	??0?$list@V?$shared_ptr@Vtoken@mqtt@@@std@@V?$allocator@V?$shared_ptr@Vtoken@mqtt@@@std@@@2@@std@@QEAA@XZ
	??0?$lock_guard@Vmutex@std@@@std@@QEAA@AEAVmutex@1@@Z
	??0?$queue@V?$shared_ptr@$$CBVmessage@mqtt@@@std@@V?$deque@V?$shared_ptr@$$CBVmessage@mqtt@@@std@@V?$allocator@V?$shared_ptr@$$CBVmessage@mqtt@@@std@@@2@@2@@std@@QEAA@XZ
	??0?$shared_ptr@$$CBV?$basic_string@DU?$char_traits@D@std@@V?$allocator@D@2@@std@@@std@@QEAA@$$QEAV01@@Z
	??0?$shared_ptr@$$CBV?$basic_string@DU?$char_traits@D@std@@V?$allocator@D@2@@std@@@std@@QEAA@AEBV01@@Z
	??0?$shared_ptr@$$CBV?$basic_string@DU?$char_traits@D@std@@V?$allocator@D@2@@std@@@std@@QEAA@XZ
	??0?$shared_ptr@$$CBVmessage@mqtt@@@std@@QEAA@$$QEAV01@@Z
	??0?$shared_ptr@$$CBVmessage@mqtt@@@std@@QEAA@AEBV01@@Z
	??0?$shared_ptr@$$CBVmessage@mqtt@@@std@@QEAA@XZ
	??0?$shared_ptr@$$CBVstring_collection@mqtt@@@std@@QEAA@$$QEAV01@@Z
	??0?$shared_ptr@$$CBVstring_collection@mqtt@@@std@@QEAA@AEBV01@@Z
	??0?$shared_ptr@$$CBVstring_collection@mqtt@@@std@@QEAA@XZ
	??0?$shared_ptr@U?$_Task_impl@E@details@Concurrency@@@std@@QEAA@$$QEAV01@@Z
	??0?$shared_ptr@U?$_Task_impl@E@details@Concurrency@@@std@@QEAA@$$T@Z
	??0?$shared_ptr@U?$_Task_impl@E@details@Concurrency@@@std@@QEAA@AEBV01@@Z
	??0?$shared_ptr@U?$_Task_impl@E@details@Concurrency@@@std@@QEAA@XZ
	??0?$shared_ptr@U_ExceptionHolder@details@Concurrency@@@std@@QEAA@$$QEAV01@@Z
	??0?$shared_ptr@U_ExceptionHolder@details@Concurrency@@@std@@QEAA@AEBV01@@Z
	??0?$shared_ptr@U_ExceptionHolder@details@Concurrency@@@std@@QEAA@XZ
	??0?$shared_ptr@U_Task_impl_base@details@Concurrency@@@std@@QEAA@$$QEAV01@@Z
	??0?$shared_ptr@U_Task_impl_base@details@Concurrency@@@std@@QEAA@AEBV01@@Z
	??0?$shared_ptr@U_Task_impl_base@details@Concurrency@@@std@@QEAA@XZ
	??0?$shared_ptr@Uscheduler_interface@Concurrency@@@std@@QEAA@$$QEAV01@@Z
	??0?$shared_ptr@Uscheduler_interface@Concurrency@@@std@@QEAA@AEBV01@@Z
	??0?$shared_ptr@Uscheduler_interface@Concurrency@@@std@@QEAA@XZ
	??0?$shared_ptr@V?$basic_string@DU?$char_traits@D@std@@V?$allocator@D@2@@std@@@std@@QEAA@$$QEAV01@@Z
	??0?$shared_ptr@V?$basic_string@DU?$char_traits@D@std@@V?$allocator@D@2@@std@@@std@@QEAA@XZ
	??0?$shared_ptr@Vdelivery_token@mqtt@@@std@@QEAA@$$QEAV01@@Z
	??0?$shared_ptr@Vdelivery_token@mqtt@@@std@@QEAA@AEBV01@@Z
	??0?$shared_ptr@Vdelivery_token@mqtt@@@std@@QEAA@XZ
	??0?$shared_ptr@Vmessage@mqtt@@@std@@QEAA@$$QEAV01@@Z
	??0?$shared_ptr@Vmessage@mqtt@@@std@@QEAA@XZ
	??0?$shared_ptr@Vstring_collection@mqtt@@@std@@QEAA@$$QEAV01@@Z
	??0?$shared_ptr@Vstring_collection@mqtt@@@std@@QEAA@XZ
	??0?$shared_ptr@Vtoken@mqtt@@@std@@QEAA@$$QEAV01@@Z
	??0?$shared_ptr@Vtoken@mqtt@@@std@@QEAA@AEBV01@@Z
	??0?$shared_ptr@Vtoken@mqtt@@@std@@QEAA@XZ
	??0?$task@E@Concurrency@@QEAA@$$QEAV01@@Z
	??0?$task@E@Concurrency@@QEAA@XZ
	??0?$task@X@Concurrency@@QEAA@$$QEAV01@@Z
	??0?$task@X@Concurrency@@QEAA@XZ
	??0?$thread_queue@V?$shared_ptr@$$CBVmessage@mqtt@@@std@@V?$deque@V?$shared_ptr@$$CBVmessage@mqtt@@@std@@V?$allocator@V?$shared_ptr@$$CBVmessage@mqtt@@@std@@@2@@2@@mqtt@@QEAA@XZ
	??0?$time_point@Usteady_clock@chrono@std@@V?$duration@_JU?$ratio@$00$0DLJKMKAA@@std@@@23@@chrono@std@@QEAA@AEBV?$duration@_JU?$ratio@$00$0DLJKMKAA@@std@@@12@@Z
	??0?$time_point@Usystem_clock@chrono@std@@V?$duration@_JU?$ratio@$00$0JIJGIA@@std@@@23@@chrono@std@@QEAA@AEBV?$duration@_JU?$ratio@$00$0JIJGIA@@std@@@12@@Z
	??0?$tuple@$$V@std@@QEAA@AEBV01@@Z
	??0?$tuple@P8callback@mqtt@@EAAXAEBV?$basic_string@DU?$char_traits@D@std@@V?$allocator@D@2@@std@@@ZPEAV12@V34@@std@@QEAA@$$QEAV01@@Z
	??0?$tuple@P8callback@mqtt@@EAAXV?$shared_ptr@Vdelivery_token@mqtt@@@std@@@ZPEAV12@V34@@std@@QEAA@$$QEAV01@@Z
	??0?$tuple@PEAVcallback@mqtt@@V?$basic_string@DU?$char_traits@D@std@@V?$allocator@D@2@@std@@@std@@QEAA@$$QEAV01@@Z
	??0?$tuple@PEAVcallback@mqtt@@V?$shared_ptr@Vdelivery_token@mqtt@@@std@@@std@@QEAA@$$QEAV01@@Z
	??0?$tuple@V?$basic_string@DU?$char_traits@D@std@@V?$allocator@D@2@@std@@@std@@QEAA@$$QEAV01@@Z
	??0?$tuple@V?$shared_ptr@Vdelivery_token@mqtt@@@std@@@std@@QEAA@$$QEAV01@@Z
	??0?$unique_lock@Vmutex@std@@@std@@QEAA@AEAVmutex@1@@Z
	??0?$vector@HV?$allocator@H@std@@@std@@QEAA@XZ
	??0?$vector@PEAXV?$allocator@PEAX@std@@@std@@QEAA@$$QEAV01@@Z
	??0?$vector@PEAXV?$allocator@PEAX@std@@@std@@QEAA@AEBV01@@Z
	??0?$vector@PEAXV?$allocator@PEAX@std@@@std@@QEAA@XZ
	??0?$vector@PEBDV?$allocator@PEBD@std@@@std@@QEAA@XZ
	??0?$vector@UMQTTSubscribe_options@@V?$allocator@UMQTTSubscribe_options@@@std@@@std@@QEAA@XZ
	??0?$vector@V?$basic_string@DU?$char_traits@D@std@@V?$allocator@D@2@@std@@V?$allocator@V?$basic_string@DU?$char_traits@D@std@@V?$allocator@D@2@@std@@@2@@std@@QEAA@$$QEAV01@@Z
	??0?$vector@V?$basic_string@DU?$char_traits@D@std@@V?$allocator@D@2@@std@@V?$allocator@V?$basic_string@DU?$char_traits@D@std@@V?$allocator@D@2@@std@@@2@@std@@QEAA@AEBV01@@Z
	??0?$vector@V?$basic_string@DU?$char_traits@D@std@@V?$allocator@D@2@@std@@V?$allocator@V?$basic_string@DU?$char_traits@D@std@@V?$allocator@D@2@@std@@@2@@std@@QEAA@V?$initializer_list@V?$basic_string@DU?$char_traits@D@std@@V?$allocator@D@2@@std@@@1@AEBV?$allocator@V?$basic_string@DU?$char_traits@D@std@@V?$allocator@D@2@@std@@@1@@Z
	??0?$vector@V?$basic_string@DU?$char_traits@D@std@@V?$allocator@D@2@@std@@V?$allocator@V?$basic_string@DU?$char_traits@D@std@@V?$allocator@D@2@@std@@@2@@std@@QEAA@XZ
	??0?$vector@V?$buffer_view@D@mqtt@@V?$allocator@V?$buffer_view@D@mqtt@@@std@@@std@@QEAA@XZ
	??0?$vector@V?$shared_ptr@Vdelivery_token@mqtt@@@std@@V?$allocator@V?$shared_ptr@Vdelivery_token@mqtt@@@std@@@2@@std@@QEAA@$$QEAV01@@Z
	??0?$vector@V?$shared_ptr@Vdelivery_token@mqtt@@@std@@V?$allocator@V?$shared_ptr@Vdelivery_token@mqtt@@@std@@@2@@std@@QEAA@XZ
	??0?$vector@Vsubscribe_options@mqtt@@V?$allocator@Vsubscribe_options@mqtt@@@std@@@std@@QEAA@XZ
	??0?$vector@W4ReasonCode@mqtt@@V?$allocator@W4ReasonCode@mqtt@@@std@@@std@@QEAA@AEBV01@@Z
	??0?$vector@W4ReasonCode@mqtt@@V?$allocator@W4ReasonCode@mqtt@@@std@@@std@@QEAA@XZ
	??0?$weak_ptr@U_Task_impl_base@details@Concurrency@@@std@@QEAA@AEBV01@@Z
	??0?$weak_ptr@Vdelivery_token@mqtt@@@std@@QEAA@XZ
	??0?$weak_ptr@Vtoken@mqtt@@@std@@QEAA@XZ
	??0_Bxty@?$_String_val@U?$_Simple_types@D@std@@@std@@QEAA@XZ
	??0_CancellationTokenRegistration@details@Concurrency@@QEAA@J@Z
	??0_Container_base12@std@@QEAA@XZ
	??0_Container_proxy@std@@QEAA@PEAU_Container_base12@1@@Z
	??0_ContextCallback@details@Concurrency@@QEAA@$$QEAV012@@Z
	??0_ContextCallback@details@Concurrency@@QEAA@_N@Z
	??0_DefaultPPLTaskScheduler@details@Concurrency@@QEAA@XZ
	??0_ExceptionHolder@details@Concurrency@@QEAA@AEBVexception_ptr@std@@AEBV_TaskCreationCallstack@12@@Z
	??0_Future_error_category@std@@QEAA@XZ
	??0_Generic_error_category@std@@QEAA@XZ
	??0_Holder@_TaskProcThunk@details@Concurrency@@QEAA@PEAU123@@Z
	??0_Internal_task_options@details@Concurrency@@QEAA@XZ
	??0_Iterator_base12@std@@QEAA@AEBU01@@Z
	??0_Iterator_base12@std@@QEAA@XZ
	??0_Mutex_base@std@@QEAA@H@Z
	??0_Node@TokenRegistrationContainer@_CancellationTokenState@details@Concurrency@@QEAA@PEAV_CancellationTokenRegistration@34@@Z
	??0_PPLTaskChore@_DefaultPPLTaskScheduler@details@Concurrency@@QEAA@P6AXPEAX@Z0@Z
	??0_RefCounter@details@Concurrency@@IEAA@J@Z
	??0_Ref_count_base@std@@IEAA@XZ
	??0_System_error@std@@IEAA@Verror_code@1@AEBV?$basic_string@DU?$char_traits@D@std@@V?$allocator@D@2@@1@@Z
	??0_System_error@std@@QEAA@AEBV01@@Z
	??0_TaskCollectionBaseImpl@details@Concurrency@@QEAA@Uscheduler_ptr@2@@Z
	??0_TaskCreationCallstack@details@Concurrency@@QEAA@$$QEAV012@@Z
	??0_TaskCreationCallstack@details@Concurrency@@QEAA@AEBV012@@Z
	??0_TaskCreationCallstack@details@Concurrency@@QEAA@XZ
	??0_TaskEventLogger@details@Concurrency@@QEAA@PEAU_Task_impl_base@12@@Z
	??0_TaskProcHandle@details@Concurrency@@QEAA@XZ
	??0_TaskProcThunk@details@Concurrency@@QEAA@AEBV?$function@$$A6AXXZ@std@@@Z
	??0_TaskWorkItemRAIILogger@details@Concurrency@@QEAA@AEAU_TaskEventLogger@12@@Z
	??0_Task_impl_base@details@Concurrency@@QEAA@PEAV_CancellationTokenState@12@Uscheduler_ptr@2@@Z
	??0_Threadpool_chore@details@Concurrency@@QEAA@P6AXPEAX@Z0@Z
	??0async_client@mqtt@@QEAA@AEBV?$basic_string@DU?$char_traits@D@std@@V?$allocator@D@2@@std@@00@Z
	??0async_client@mqtt@@QEAA@AEBV?$basic_string@DU?$char_traits@D@std@@V?$allocator@D@2@@std@@0H0@Z
	??0async_client@mqtt@@QEAA@AEBV?$basic_string@DU?$char_traits@D@std@@V?$allocator@D@2@@std@@0HPEAViclient_persistence@1@@Z
	??0async_client@mqtt@@QEAA@AEBV?$basic_string@DU?$char_traits@D@std@@V?$allocator@D@2@@std@@0PEAViclient_persistence@1@@Z
	??0bad_cast@std@@QEAA@AEBV01@@Z
	??0bad_cast@std@@QEAA@XZ
	??0callback@mqtt@@QEAA@XZ
	??0cancellation_token@Concurrency@@AEAA@XZ
	??0cancellation_token@Concurrency@@QEAA@AEBV01@@Z
	??0client@mqtt@@QEAA@AEBV?$basic_string@DU?$char_traits@D@std@@V?$allocator@D@2@@std@@00@Z
	??0client@mqtt@@QEAA@AEBV?$basic_string@DU?$char_traits@D@std@@V?$allocator@D@2@@std@@0H0@Z
	??0client@mqtt@@QEAA@AEBV?$basic_string@DU?$char_traits@D@std@@V?$allocator@D@2@@std@@0HPEAViclient_persistence@1@@Z
	??0client@mqtt@@QEAA@AEBV?$basic_string@DU?$char_traits@D@std@@V?$allocator@D@2@@std@@0PEAViclient_persistence@1@@Z
	??0condition_variable@std@@QEAA@XZ
	??0connect_options@mqtt@@QEAA@$$QEAV01@@Z
	??0connect_options@mqtt@@QEAA@AEBV01@@Z
	??0connect_options@mqtt@@QEAA@V?$buffer_ref@D@1@0@Z
	??0connect_options@mqtt@@QEAA@XZ
	??0connect_response@mqtt@@AEAA@PEBUMQTTAsync_successData5@@@Z
	??0connect_response@mqtt@@AEAA@PEBUMQTTAsync_successData@@@Z
	??0connect_response@mqtt@@QEAA@AEBV01@@Z
	??0delivery_response_options@mqtt@@QEAA@AEBV?$shared_ptr@Vdelivery_token@mqtt@@@std@@H@Z
	??0delivery_response_options@mqtt@@QEAA@H@Z
	??0delivery_token@mqtt@@QEAA@AEAViasync_client@1@V?$shared_ptr@$$CBVmessage@mqtt@@@std@@@Z
	??0delivery_token@mqtt@@QEAA@AEAViasync_client@1@V?$shared_ptr@$$CBVmessage@mqtt@@@std@@PEAXAEAViaction_listener@1@@Z
	??0disconnect_options@mqtt@@QEAA@$$QEAV01@@Z
	??0disconnect_options@mqtt@@QEAA@AEBV01@@Z
	??0disconnect_options@mqtt@@QEAA@H@Z
	??0disconnect_options@mqtt@@QEAA@XZ
	??0error_category@std@@QEAA@XZ
	??0error_code@std@@QEAA@HAEBVerror_category@1@@Z
	??0error_condition@std@@QEAA@HAEBVerror_category@1@@Z
	??0exception@mqtt@@QEAA@AEBV01@@Z
	??0exception@mqtt@@QEAA@H@Z
	??0exception@mqtt@@QEAA@HAEBV?$basic_string@DU?$char_traits@D@std@@V?$allocator@D@2@@std@@@Z
	??0exception@mqtt@@QEAA@HW4ReasonCode@1@AEBV?$basic_string@DU?$char_traits@D@std@@V?$allocator@D@2@@std@@@Z
	??0exception@std@@QEAA@AEBV01@@Z
	??0exception@std@@QEAA@QEBD@Z
	??0exception@std@@QEAA@QEBDH@Z
	??0exception_ptr@std@@QEAA@AEBV01@@Z
	??0exception_ptr@std@@QEAA@XZ
	??0iasync_client@mqtt@@QEAA@XZ
	??0invalid_argument@std@@QEAA@AEBV01@@Z
	??0invalid_argument@std@@QEAA@PEBD@Z
	??0invalid_operation@Concurrency@@QEAA@AEBV01@@Z
	??0invalid_operation@Concurrency@@QEAA@PEBD@Z
	??0logic_error@std@@QEAA@AEBV01@@Z
	??0logic_error@std@@QEAA@PEBD@Z
	??0message@mqtt@@QEAA@$$QEAV01@@Z
	??0message@mqtt@@QEAA@AEBV01@@Z
	??0message@mqtt@@QEAA@V?$buffer_ref@D@1@0H_N@Z
	??0message@mqtt@@QEAA@V?$buffer_ref@D@1@AEBUMQTTAsync_message@@@Z
	??0message@mqtt@@QEAA@V?$buffer_ref@D@1@PEBX_KH_N@Z
	??0message@mqtt@@QEAA@XZ
	??0missing_response@mqtt@@QEAA@AEBV01@@Z
	??0missing_response@mqtt@@QEAA@AEBV?$basic_string@DU?$char_traits@D@std@@V?$allocator@D@2@@std@@@Z
	??0mutex@std@@QEAA@XZ
	??0properties@mqtt@@QEAA@$$QEAV01@@Z
	??0properties@mqtt@@QEAA@AEBUMQTTProperties@@@Z
	??0properties@mqtt@@QEAA@AEBV01@@Z
	??0properties@mqtt@@QEAA@V?$initializer_list@Vproperty@mqtt@@@std@@@Z
	??0properties@mqtt@@QEAA@XZ
	??0property@mqtt@@QEAA@$$QEAUMQTTProperty@@@Z
	??0property@mqtt@@QEAA@$$QEAV01@@Z
	??0property@mqtt@@QEAA@AEBUMQTTProperty@@@Z
	??0property@mqtt@@QEAA@AEBV01@@Z
	??0property@mqtt@@QEAA@W4code@01@H@Z
	??0property@mqtt@@QEAA@W4code@01@V?$buffer_ref@D@1@1@Z
	??0property@mqtt@@QEAA@W4code@01@V?$buffer_ref@D@1@@Z
	??0response_options@mqtt@@QEAA@AEBV?$shared_ptr@Vtoken@mqtt@@@std@@H@Z
	??0response_options@mqtt@@QEAA@H@Z
	??0runtime_error@std@@QEAA@AEBV01@@Z
	??0runtime_error@std@@QEAA@AEBV?$basic_string@DU?$char_traits@D@std@@V?$allocator@D@2@@1@@Z
	??0runtime_error@std@@QEAA@PEBD@Z
	??0scheduler_interface@Concurrency@@QEAA@XZ
	??0scheduler_ptr@Concurrency@@QEAA@AEBU01@@Z
	??0scheduler_ptr@Concurrency@@QEAA@V?$shared_ptr@Uscheduler_interface@Concurrency@@@std@@@Z
	??0server_response@mqtt@@QEAA@$$QEAVproperties@1@@Z
	??0server_response@mqtt@@QEAA@AEBV01@@Z
	??0server_response@mqtt@@QEAA@XZ
	??0ssl_options@mqtt@@QEAA@$$QEAV01@@Z
	??0ssl_options@mqtt@@QEAA@AEBV01@@Z
	??0ssl_options@mqtt@@QEAA@AEBV?$basic_string@DU?$char_traits@D@std@@V?$allocator@D@2@@std@@0000_N@Z
	??0ssl_options@mqtt@@QEAA@XZ
	??0string_collection@mqtt@@QEAA@$$QEAV?$basic_string@DU?$char_traits@D@std@@V?$allocator@D@2@@std@@@Z
	??0string_collection@mqtt@@QEAA@$$QEAV?$vector@V?$basic_string@DU?$char_traits@D@std@@V?$allocator@D@2@@std@@V?$allocator@V?$basic_string@DU?$char_traits@D@std@@V?$allocator@D@2@@std@@@2@@std@@@Z
	??0string_collection@mqtt@@QEAA@AEBV01@@Z
	??0string_collection@mqtt@@QEAA@AEBV?$basic_string@DU?$char_traits@D@std@@V?$allocator@D@2@@std@@@Z
	??0string_collection@mqtt@@QEAA@AEBV?$vector@V?$basic_string@DU?$char_traits@D@std@@V?$allocator@D@2@@std@@V?$allocator@V?$basic_string@DU?$char_traits@D@std@@V?$allocator@D@2@@std@@@2@@std@@@Z
	??0string_collection@mqtt@@QEAA@V?$initializer_list@PEBD@std@@@Z
	??0string_collection@mqtt@@QEAA@V?$initializer_list@V?$basic_string@DU?$char_traits@D@std@@V?$allocator@D@2@@std@@@std@@@Z
	??0subscribe_options@mqtt@@QEAA@XZ
	??0subscribe_response@mqtt@@QEAA@AEBU01@@Z
	??0subscribe_response@mqtt@@QEAA@PEAUMQTTAsync_successData5@@@Z
	??0subscribe_response@mqtt@@QEAA@_KPEAUMQTTAsync_successData@@@Z
	??0system_error@std@@QEAA@AEBV01@@Z
	??0system_error@std@@QEAA@Verror_code@1@@Z
	??0task_continuation_context@Concurrency@@AEAA@U_Tag@01@@Z
	??0task_options@Concurrency@@QEAA@XZ
	??0token@mqtt@@QEAA@W4Type@01@AEAViasync_client@1@@Z
	??0token@mqtt@@QEAA@W4Type@01@AEAViasync_client@1@AEBV?$basic_string@DU?$char_traits@D@std@@V?$allocator@D@2@@std@@@Z
	??0token@mqtt@@QEAA@W4Type@01@AEAViasync_client@1@AEBV?$basic_string@DU?$char_traits@D@std@@V?$allocator@D@2@@std@@PEAXAEAViaction_listener@1@@Z
	??0token@mqtt@@QEAA@W4Type@01@AEAViasync_client@1@H@Z
	??0token@mqtt@@QEAA@W4Type@01@AEAViasync_client@1@PEAXAEAViaction_listener@1@@Z
	??0token@mqtt@@QEAA@W4Type@01@AEAViasync_client@1@V?$shared_ptr@$$CBVstring_collection@mqtt@@@std@@@Z
	??0token@mqtt@@QEAA@W4Type@01@AEAViasync_client@1@V?$shared_ptr@$$CBVstring_collection@mqtt@@@std@@PEAXAEAViaction_listener@1@@Z
	??0topic@mqtt@@QEAA@AEAViasync_client@1@AEBV?$basic_string@DU?$char_traits@D@std@@V?$allocator@D@2@@std@@H_N@Z
	??0unsubscribe_response@mqtt@@AEAA@PEAUMQTTAsync_successData5@@@Z
	??0unsubscribe_response@mqtt@@AEAA@PEAUMQTTAsync_successData@@@Z
	??0unsubscribe_response@mqtt@@QEAA@AEBV01@@Z
	??0will_options@mqtt@@QEAA@$$QEAV01@@Z
	??0will_options@mqtt@@QEAA@AEBV01@@Z
	??0will_options@mqtt@@QEAA@AEBVmessage@1@@Z
	??0will_options@mqtt@@QEAA@AEBVtopic@1@PEBX_KH_N@Z
	??0will_options@mqtt@@QEAA@V?$buffer_ref@D@1@0H_N@Z
	??0will_options@mqtt@@QEAA@V?$buffer_ref@D@1@AEBV?$basic_string@DU?$char_traits@D@std@@V?$allocator@D@2@@std@@H_N@Z
	??0will_options@mqtt@@QEAA@V?$buffer_ref@D@1@PEBX_KH_N@Z
	??0will_options@mqtt@@QEAA@XZ
	??1<lambda_052e919cc0e5399df76dff3972c0cac1>@@QEAA@XZ
	??1<lambda_be3e5d9dce35d2c8dbfa8485373731d5>@@QEAA@XZ
	??1<lambda_f25c37099038263181b5186a3fa41b37>@@QEAA@XZ
	??1?$_Alloc_construct_ptr@V?$allocator@U?$_List_node@V?$shared_ptr@Vdelivery_token@mqtt@@@std@@PEAX@std@@@std@@@std@@QEAA@XZ
	??1?$_Alloc_construct_ptr@V?$allocator@U?$_List_node@V?$shared_ptr@Vtoken@mqtt@@@std@@PEAX@std@@@std@@@std@@QEAA@XZ
	??1?$_Associated_state@H@std@@UEAA@XZ
	??1?$_CancellationTokenCallback@V<lambda_be3e5d9dce35d2c8dbfa8485373731d5>@@@details@Concurrency@@UEAA@XZ
	??1?$_Compressed_pair@V?$allocator@D@std@@V?$_String_val@U?$_Simple_types@D@std@@@2@$00@std@@QEAA@XZ
	??1?$_Container_proxy_ptr12@V?$allocator@U_Container_proxy@std@@@std@@@std@@QEAA@XZ
	??1?$_Deferred_async_state@X@std@@UEAA@XZ
	??1?$_Fake_no_copy_callable_adapter@P8callback@mqtt@@EAAXAEBV?$basic_string@DU?$char_traits@D@std@@V?$allocator@D@2@@std@@@ZAEAPEAV12@AEBV34@@std@@QEAA@XZ
	??1?$_Fake_no_copy_callable_adapter@P8callback@mqtt@@EAAXV?$shared_ptr@Vdelivery_token@mqtt@@@std@@@ZAEAPEAV12@AEAV34@@std@@QEAA@XZ
	??1?$_Func_class@E$$V@std@@QEAA@XZ
	??1?$_Func_class@X$$V@std@@QEAA@XZ
	??1?$_Func_class@XAEBV?$basic_string@DU?$char_traits@D@std@@V?$allocator@D@2@@std@@@std@@QEAA@XZ
	??1?$_Func_class@XV?$shared_ptr@$$CBVmessage@mqtt@@@std@@@std@@QEAA@XZ
	??1?$_Func_impl_no_alloc@V<lambda_052e919cc0e5399df76dff3972c0cac1>@@E$$V@std@@QEAA@XZ
	??1?$_Func_impl_no_alloc@V<lambda_f25c37099038263181b5186a3fa41b37>@@X$$V@std@@QEAA@XZ
	??1?$_Func_impl_no_alloc@V?$_Fake_no_copy_callable_adapter@P8callback@mqtt@@EAAXAEBV?$basic_string@DU?$char_traits@D@std@@V?$allocator@D@2@@std@@@ZAEAPEAV12@AEBV34@@std@@X$$V@std@@QEAA@XZ
	??1?$_Func_impl_no_alloc@V?$_Fake_no_copy_callable_adapter@P8callback@mqtt@@EAAXV?$shared_ptr@Vdelivery_token@mqtt@@@std@@@ZAEAPEAV12@AEAV34@@std@@X$$V@std@@QEAA@XZ
	??1?$_InitialTaskHandle@XV<lambda_16db0a518715f6321653a25f2424e302>@@U_TypeSelectorNoAsync@details@Concurrency@@@?$task@E@Concurrency@@UEAA@XZ
	??1?$_InitialTaskHandle@XV<lambda_a28169bf5ada89786cdd03ccb91074b7>@@U_TypeSelectorNoAsync@details@Concurrency@@@?$task@E@Concurrency@@UEAA@XZ
	??1?$_List_const_iterator@V?$_List_val@U?$_List_simple_types@V?$shared_ptr@Vdelivery_token@mqtt@@@std@@@std@@@std@@@std@@QEAA@XZ
	??1?$_List_const_iterator@V?$_List_val@U?$_List_simple_types@V?$shared_ptr@Vtoken@mqtt@@@std@@@std@@@std@@@std@@QEAA@XZ
	??1?$_List_iterator@V?$_List_val@U?$_List_simple_types@V?$shared_ptr@Vdelivery_token@mqtt@@@std@@@std@@@std@@@std@@QEAA@XZ
	??1?$_List_iterator@V?$_List_val@U?$_List_simple_types@V?$shared_ptr@Vtoken@mqtt@@@std@@@std@@@std@@@std@@QEAA@XZ
	??1?$_List_node_emplace_op@V?$allocator@U?$_List_node@V?$shared_ptr@Vdelivery_token@mqtt@@@std@@PEAX@std@@@std@@@std@@QEAA@XZ
	??1?$_List_node_emplace_op@V?$allocator@U?$_List_node@V?$shared_ptr@Vtoken@mqtt@@@std@@PEAX@std@@@std@@@std@@QEAA@XZ
	??1?$_List_unchecked_const_iterator@V?$_List_val@U?$_List_simple_types@V?$shared_ptr@Vdelivery_token@mqtt@@@std@@@std@@@std@@U_Iterator_base12@2@@std@@QEAA@XZ
	??1?$_List_unchecked_const_iterator@V?$_List_val@U?$_List_simple_types@V?$shared_ptr@Vtoken@mqtt@@@std@@@std@@@std@@U_Iterator_base12@2@@std@@QEAA@XZ
	??1?$_PPLTaskHandle@EU?$_InitialTaskHandle@XV<lambda_16db0a518715f6321653a25f2424e302>@@U_TypeSelectorNoAsync@details@Concurrency@@@?$task@E@Concurrency@@U_TaskProcHandle@details@3@@details@Concurrency@@UEAA@XZ
	??1?$_PPLTaskHandle@EU?$_InitialTaskHandle@XV<lambda_a28169bf5ada89786cdd03ccb91074b7>@@U_TypeSelectorNoAsync@details@Concurrency@@@?$task@E@Concurrency@@U_TaskProcHandle@details@3@@details@Concurrency@@UEAA@XZ
	??1?$_Packaged_state@$$A6AXXZ@std@@UEAA@XZ
	??1?$_Promise@H@std@@QEAA@XZ
	??1?$_Ref_count_obj@U?$_Task_impl@E@details@Concurrency@@@std@@UEAA@XZ
	??1?$_Ref_count_obj@U_ExceptionHolder@details@Concurrency@@@std@@UEAA@XZ
	??1?$_Ref_count_obj@V?$basic_string@DU?$char_traits@D@std@@V?$allocator@D@2@@std@@@std@@UEAA@XZ
	??1?$_Ref_count_obj@Vdelivery_token@mqtt@@@std@@UEAA@XZ
	??1?$_Ref_count_obj@Vmessage@mqtt@@@std@@UEAA@XZ
	??1?$_Ref_count_obj@Vstring_collection@mqtt@@@std@@UEAA@XZ
	??1?$_Ref_count_obj@Vtoken@mqtt@@@std@@UEAA@XZ
	??1?$_Ref_count_resource@PEAVmessage@mqtt@@V<lambda_682f2f383c70f45f1f9b18ee8e8227fb>@@@std@@UEAA@XZ
	??1?$_Ref_count_resource@PEAVstring_collection@mqtt@@V<lambda_4d9f54b62c80a46497c8ee29775a19d4>@@@std@@UEAA@XZ
	??1?$_State_manager@H@std@@QEAA@XZ
	??1?$_String_val@U?$_Simple_types@D@std@@@std@@QEAA@XZ
	??1?$_Task_async_state@X@std@@UEAA@XZ
	??1?$_Task_impl@E@details@Concurrency@@UEAA@XZ
	??1?$_Temporary_owner_del@PEAVmessage@mqtt@@V<lambda_682f2f383c70f45f1f9b18ee8e8227fb>@@@std@@QEAA@XZ
	??1?$_Temporary_owner_del@PEAVstring_collection@mqtt@@V<lambda_4d9f54b62c80a46497c8ee29775a19d4>@@@std@@QEAA@XZ
	??1?$_Tidy_guard@V?$vector@PEAXV?$allocator@PEAX@std@@@std@@@std@@QEAA@XZ
	??1?$_Tidy_guard@V?$vector@V?$basic_string@DU?$char_traits@D@std@@V?$allocator@D@2@@std@@V?$allocator@V?$basic_string@DU?$char_traits@D@std@@V?$allocator@D@2@@std@@@2@@std@@@std@@QEAA@XZ
	??1?$_Tidy_guard@V?$vector@W4ReasonCode@mqtt@@V?$allocator@W4ReasonCode@mqtt@@@std@@@std@@@std@@QEAA@XZ
	??1?$_Tuple_val@V?$basic_string@DU?$char_traits@D@std@@V?$allocator@D@2@@std@@@std@@QEAA@XZ
	??1?$_Tuple_val@V?$shared_ptr@Vdelivery_token@mqtt@@@std@@@std@@QEAA@XZ
	??1?$_Uninitialized_backout_al@V?$allocator@V?$basic_string@DU?$char_traits@D@std@@V?$allocator@D@2@@std@@@std@@@std@@QEAA@XZ
	??1?$_Uninitialized_backout_al@V?$allocator@V?$buffer_view@D@mqtt@@@std@@@std@@QEAA@XZ
	??1?$_Uninitialized_backout_al@V?$allocator@V?$shared_ptr@Vdelivery_token@mqtt@@@std@@@std@@@std@@QEAA@XZ
	??1?$basic_string@DU?$char_traits@D@std@@V?$allocator@D@2@@std@@QEAA@XZ
	??1?$buffer_ref@D@mqtt@@QEAA@XZ
	??1?$deque@V?$shared_ptr@$$CBVmessage@mqtt@@@std@@V?$allocator@V?$shared_ptr@$$CBVmessage@mqtt@@@std@@@2@@std@@QEAA@XZ
	??1?$function@$$A6AEXZ@std@@QEAA@XZ
	??1?$function@$$A6AXAEBV?$basic_string@DU?$char_traits@D@std@@V?$allocator@D@2@@std@@@Z@std@@QEAA@XZ
	??1?$function@$$A6AXV?$shared_ptr@$$CBVmessage@mqtt@@@std@@@Z@std@@QEAA@XZ
	??1?$function@$$A6AXXZ@std@@QEAA@XZ
	??1?$future@X@std@@QEAA@XZ
	??1?$list@V?$shared_ptr@Vdelivery_token@mqtt@@@std@@V?$allocator@V?$shared_ptr@Vdelivery_token@mqtt@@@std@@@2@@std@@QEAA@XZ
	??1?$list@V?$shared_ptr@Vtoken@mqtt@@@std@@V?$allocator@V?$shared_ptr@Vtoken@mqtt@@@std@@@2@@std@@QEAA@XZ
	??1?$lock_guard@Vmutex@std@@@std@@QEAA@XZ
	??1?$queue@V?$shared_ptr@$$CBVmessage@mqtt@@@std@@V?$deque@V?$shared_ptr@$$CBVmessage@mqtt@@@std@@V?$allocator@V?$shared_ptr@$$CBVmessage@mqtt@@@std@@@2@@2@@std@@QEAA@XZ
	??1?$shared_ptr@$$CBV?$basic_string@DU?$char_traits@D@std@@V?$allocator@D@2@@std@@@std@@QEAA@XZ
	??1?$shared_ptr@$$CBVmessage@mqtt@@@std@@QEAA@XZ
	??1?$shared_ptr@$$CBVstring_collection@mqtt@@@std@@QEAA@XZ
	??1?$shared_ptr@U?$_Task_impl@E@details@Concurrency@@@std@@QEAA@XZ
	??1?$shared_ptr@U_ExceptionHolder@details@Concurrency@@@std@@QEAA@XZ
	??1?$shared_ptr@U_Task_impl_base@details@Concurrency@@@std@@QEAA@XZ
	??1?$shared_ptr@Uscheduler_interface@Concurrency@@@std@@QEAA@XZ
	??1?$shared_ptr@V?$basic_string@DU?$char_traits@D@std@@V?$allocator@D@2@@std@@@std@@QEAA@XZ
	??1?$shared_ptr@Vdelivery_token@mqtt@@@std@@QEAA@XZ
	??1?$shared_ptr@Vmessage@mqtt@@@std@@QEAA@XZ
	??1?$shared_ptr@Vstring_collection@mqtt@@@std@@QEAA@XZ
	??1?$shared_ptr@Vtoken@mqtt@@@std@@QEAA@XZ
	??1?$task@E@Concurrency@@QEAA@XZ
	??1?$task@X@Concurrency@@QEAA@XZ
	??1?$thread_queue@V?$shared_ptr@$$CBVmessage@mqtt@@@std@@V?$deque@V?$shared_ptr@$$CBVmessage@mqtt@@@std@@V?$allocator@V?$shared_ptr@$$CBVmessage@mqtt@@@std@@@2@@2@@mqtt@@QEAA@XZ
	??1?$tuple@P8callback@mqtt@@EAAXAEBV?$basic_string@DU?$char_traits@D@std@@V?$allocator@D@2@@std@@@ZPEAV12@V34@@std@@QEAA@XZ
	??1?$tuple@P8callback@mqtt@@EAAXV?$shared_ptr@Vdelivery_token@mqtt@@@std@@@ZPEAV12@V34@@std@@QEAA@XZ
	??1?$tuple@PEAVcallback@mqtt@@V?$basic_string@DU?$char_traits@D@std@@V?$allocator@D@2@@std@@@std@@QEAA@XZ
	??1?$tuple@PEAVcallback@mqtt@@V?$shared_ptr@Vdelivery_token@mqtt@@@std@@@std@@QEAA@XZ
	??1?$tuple@V?$basic_string@DU?$char_traits@D@std@@V?$allocator@D@2@@std@@@std@@QEAA@XZ
	??1?$tuple@V?$shared_ptr@Vdelivery_token@mqtt@@@std@@@std@@QEAA@XZ
	??1?$unique_lock@Vmutex@std@@@std@@QEAA@XZ
	??1?$unique_ptr@UMQTTClient_persistence@@U?$default_delete@UMQTTClient_persistence@@@std@@@std@@QEAA@XZ
	??1?$unique_ptr@U_TaskProcHandle@details@Concurrency@@U?$default_delete@U_TaskProcHandle@details@Concurrency@@@std@@@std@@QEAA@XZ
	??1?$unique_ptr@Usubscribe_response@mqtt@@U?$default_delete@Usubscribe_response@mqtt@@@std@@@std@@QEAA@XZ
	??1?$unique_ptr@V?$thread_queue@V?$shared_ptr@$$CBVmessage@mqtt@@@std@@V?$deque@V?$shared_ptr@$$CBVmessage@mqtt@@@std@@V?$allocator@V?$shared_ptr@$$CBVmessage@mqtt@@@std@@@2@@2@@mqtt@@U?$default_delete@V?$thread_queue@V?$shared_ptr@$$CBVmessage@mqtt@@@std@@V?$deque@V?$shared_ptr@$$CBVmessage@mqtt@@@std@@V?$allocator@V?$shared_ptr@$$CBVmessage@mqtt@@@std@@@2@@2@@mqtt@@@std@@@std@@QEAA@XZ
	??1?$unique_ptr@V_PPLTaskChore@_DefaultPPLTaskScheduler@details@Concurrency@@U?$default_delete@V_PPLTaskChore@_DefaultPPLTaskScheduler@details@Concurrency@@@std@@@std@@QEAA@XZ
	??1?$unique_ptr@Vconnect_response@mqtt@@U?$default_delete@Vconnect_response@mqtt@@@std@@@std@@QEAA@XZ
	??1?$unique_ptr@Vunsubscribe_response@mqtt@@U?$default_delete@Vunsubscribe_response@mqtt@@@std@@@std@@QEAA@XZ
	??1?$vector@HV?$allocator@H@std@@@std@@QEAA@XZ
	??1?$vector@PEAXV?$allocator@PEAX@std@@@std@@QEAA@XZ
	??1?$vector@PEBDV?$allocator@PEBD@std@@@std@@QEAA@XZ
	??1?$vector@UMQTTSubscribe_options@@V?$allocator@UMQTTSubscribe_options@@@std@@@std@@QEAA@XZ
	??1?$vector@V?$basic_string@DU?$char_traits@D@std@@V?$allocator@D@2@@std@@V?$allocator@V?$basic_string@DU?$char_traits@D@std@@V?$allocator@D@2@@std@@@2@@std@@QEAA@XZ
	??1?$vector@V?$buffer_view@D@mqtt@@V?$allocator@V?$buffer_view@D@mqtt@@@std@@@std@@QEAA@XZ
	??1?$vector@V?$shared_ptr@Vdelivery_token@mqtt@@@std@@V?$allocator@V?$shared_ptr@Vdelivery_token@mqtt@@@std@@@2@@std@@QEAA@XZ
	??1?$vector@Vsubscribe_options@mqtt@@V?$allocator@Vsubscribe_options@mqtt@@@std@@@std@@QEAA@XZ
	??1?$vector@W4ReasonCode@mqtt@@V?$allocator@W4ReasonCode@mqtt@@@std@@@std@@QEAA@XZ
	??1?$weak_ptr@U_Task_impl_base@details@Concurrency@@@std@@QEAA@XZ
	??1?$weak_ptr@Vdelivery_token@mqtt@@@std@@QEAA@XZ
	??1?$weak_ptr@Vtoken@mqtt@@@std@@QEAA@XZ
	??1_Bxty@?$_String_val@U?$_Simple_types@D@std@@@std@@QEAA@XZ
	??1_CancellationTokenRegistration@details@Concurrency@@MEAA@XZ
	??1_ContextCallback@details@Concurrency@@QEAA@XZ
	??1_ExceptionHolder@details@Concurrency@@QEAA@XZ
	??1_Future_error_category@std@@UEAA@XZ
	??1_Generic_error_category@std@@UEAA@XZ
	??1_Guard_type@?1???$_Global_new@V?$_Func_impl_no_alloc@V<lambda_052e919cc0e5399df76dff3972c0cac1>@@E$$V@std@@AEBV<lambda_052e919cc0e5399df76dff3972c0cac1>@@@std@@YAPEAV?$_Func_impl_no_alloc@V<lambda_052e919cc0e5399df76dff3972c0cac1>@@E$$V@1@AEBV<lambda_052e919cc0e5399df76dff3972c0cac1>@@@Z@QEAA@XZ
	??1_Guard_type@?1???$_Global_new@V?$_Func_impl_no_alloc@V<lambda_052e919cc0e5399df76dff3972c0cac1>@@E$$V@std@@V<lambda_052e919cc0e5399df76dff3972c0cac1>@@@std@@YAPEAV?$_Func_impl_no_alloc@V<lambda_052e919cc0e5399df76dff3972c0cac1>@@E$$V@1@$$QEAV<lambda_052e919cc0e5399df76dff3972c0cac1>@@@Z@QEAA@XZ
	??1_Guard_type@?1???$_Global_new@V?$_Func_impl_no_alloc@V?$_Fake_no_copy_callable_adapter@P8callback@mqtt@@EAAXAEBV?$basic_string@DU?$char_traits@D@std@@V?$allocator@D@2@@std@@@ZAEAPEAV12@AEBV34@@std@@X$$V@std@@AEBV?$_Fake_no_copy_callable_adapter@P8callback@mqtt@@EAAXAEBV?$basic_string@DU?$char_traits@D@std@@V?$allocator@D@2@@std@@@ZAEAPEAV12@AEBV34@@2@@std@@YAPEAV?$_Func_impl_no_alloc@V?$_Fake_no_copy_callable_adapter@P8callback@mqtt@@EAAXAEBV?$basic_string@DU?$char_traits@D@std@@V?$allocator@D@2@@std@@@ZAEAPEAV12@AEBV34@@std@@X$$V@1@AEBV?$_Fake_no_copy_callable_adapter@P8callback@mqtt@@EAAXAEBV?$basic_string@DU?$char_traits@D@std@@V?$allocator@D@2@@std@@@ZAEAPEAV12@AEBV34@@1@@Z@QEAA@XZ
	??1_Guard_type@?1???$_Global_new@V?$_Func_impl_no_alloc@V?$_Fake_no_copy_callable_adapter@P8callback@mqtt@@EAAXAEBV?$basic_string@DU?$char_traits@D@std@@V?$allocator@D@2@@std@@@ZAEAPEAV12@AEBV34@@std@@X$$V@std@@V?$_Fake_no_copy_callable_adapter@P8callback@mqtt@@EAAXAEBV?$basic_string@DU?$char_traits@D@std@@V?$allocator@D@2@@std@@@ZAEAPEAV12@AEBV34@@2@@std@@YAPEAV?$_Func_impl_no_alloc@V?$_Fake_no_copy_callable_adapter@P8callback@mqtt@@EAAXAEBV?$basic_string@DU?$char_traits@D@std@@V?$allocator@D@2@@std@@@ZAEAPEAV12@AEBV34@@std@@X$$V@1@$$QEAV?$_Fake_no_copy_callable_adapter@P8callback@mqtt@@EAAXAEBV?$basic_string@DU?$char_traits@D@std@@V?$allocator@D@2@@std@@@ZAEAPEAV12@AEBV34@@1@@Z@QEAA@XZ
	??1_Holder@_TaskProcThunk@details@Concurrency@@QEAA@XZ
	??1_Internal_task_options@details@Concurrency@@QEAA@XZ
	??1_Iterator_base12@std@@QEAA@XZ
	??1_Mutex_base@std@@QEAA@XZ
	??1_PPLTaskChore@_DefaultPPLTaskScheduler@details@Concurrency@@QEAA@XZ
	??1_RefCounter@details@Concurrency@@UEAA@XZ
	??1_Ref_count_base@std@@UEAA@XZ
	??1_System_error@std@@UEAA@XZ
	??1_TaskCollectionBaseImpl@details@Concurrency@@QEAA@XZ
	??1_TaskCreationCallstack@details@Concurrency@@QEAA@XZ
	??1_TaskProcHandle@details@Concurrency@@UEAA@XZ
	??1_TaskProcThunk@details@Concurrency@@QEAA@XZ
	??1_TaskWorkItemRAIILogger@details@Concurrency@@QEAA@XZ
	??1_Task_impl_base@details@Concurrency@@UEAA@XZ
	??1async_client@mqtt@@UEAA@XZ
	??1bad_cast@std@@UEAA@XZ
	??1callback@mqtt@@UEAA@XZ
	??1cancellation_token@Concurrency@@QEAA@XZ
	??1client@mqtt@@UEAA@XZ
	??1condition_variable@std@@QEAA@XZ
	??1connect_options@mqtt@@QEAA@XZ
	??1connect_response@mqtt@@UEAA@XZ
	??1delivery_response_options@mqtt@@QEAA@XZ
	??1delivery_token@mqtt@@UEAA@XZ
	??1disconnect_options@mqtt@@QEAA@XZ
	??1error_category@std@@UEAA@XZ
	??1exception@mqtt@@UEAA@XZ
	??1exception@std@@UEAA@XZ
	??1exception_ptr@std@@QEAA@XZ
	??1iasync_client@mqtt@@UEAA@XZ
	??1invalid_argument@std@@UEAA@XZ
	??1invalid_operation@Concurrency@@UEAA@XZ
	??1logic_error@std@@UEAA@XZ
	??1message@mqtt@@QEAA@XZ
	??1missing_response@mqtt@@UEAA@XZ
	??1mutex@std@@QEAA@XZ
	??1properties@mqtt@@QEAA@XZ
	??1property@mqtt@@QEAA@XZ
	??1response_options@mqtt@@QEAA@XZ
	??1runtime_error@std@@UEAA@XZ
	??1scheduler_ptr@Concurrency@@QEAA@XZ
	??1server_response@mqtt@@UEAA@XZ
	??1ssl_options@mqtt@@QEAA@XZ
	??1string_collection@mqtt@@QEAA@XZ
	??1subscribe_response@mqtt@@UEAA@XZ
	??1system_error@std@@UEAA@XZ
	??1task_continuation_context@Concurrency@@QEAA@XZ
	??1task_options@Concurrency@@QEAA@XZ
	??1token@mqtt@@UEAA@XZ
	??1unsubscribe_response@mqtt@@UEAA@XZ
	??1will_options@mqtt@@QEAA@XZ
	??2@YAPEAX_KPEAX@Z
	??4?$atomic@J@std@@QEAAJJ@Z
	??4?$basic_string@DU?$char_traits@D@std@@V?$allocator@D@2@@std@@QEAAAEAV01@$$QEAV01@@Z
	??4?$basic_string@DU?$char_traits@D@std@@V?$allocator@D@2@@std@@QEAAAEAV01@AEBV01@@Z
	??4?$buffer_ref@D@mqtt@@QEAAAEAV01@$$QEAV01@@Z
	??4?$buffer_ref@D@mqtt@@QEAAAEAV01@AEBV01@@Z
	??4?$function@$$A6AXAEBV?$basic_string@DU?$char_traits@D@std@@V?$allocator@D@2@@std@@@Z@std@@QEAAAEAV01@AEBV01@@Z
	??4?$function@$$A6AXV?$shared_ptr@$$CBVmessage@mqtt@@@std@@@Z@std@@QEAAAEAV01@AEBV01@@Z
	??4?$shared_ptr@$$CBV?$basic_string@DU?$char_traits@D@std@@V?$allocator@D@2@@std@@@std@@QEAAAEAV01@$$QEAV01@@Z
	??4?$shared_ptr@$$CBV?$basic_string@DU?$char_traits@D@std@@V?$allocator@D@2@@std@@@std@@QEAAAEAV01@AEBV01@@Z
	??4?$shared_ptr@$$CBVstring_collection@mqtt@@@std@@QEAAAEAV01@$$QEAV01@@Z
	??4?$shared_ptr@U?$_Task_impl@E@details@Concurrency@@@std@@QEAAAEAV01@$$QEAV01@@Z
	??4?$shared_ptr@U_ExceptionHolder@details@Concurrency@@@std@@QEAAAEAV01@AEBV01@@Z
	??4?$shared_ptr@Vtoken@mqtt@@@std@@QEAAAEAV01@$$QEAV01@@Z
	??4?$shared_ptr@Vtoken@mqtt@@@std@@QEAAAEAV01@AEBV01@@Z
	??4?$task@E@Concurrency@@QEAAAEAV01@$$QEAV01@@Z
	??4?$task@X@Concurrency@@QEAAAEAV01@$$QEAV01@@Z
	??4?$vector@PEAXV?$allocator@PEAX@std@@@std@@QEAAAEAV01@AEBV01@@Z
	??4?$vector@V?$basic_string@DU?$char_traits@D@std@@V?$allocator@D@2@@std@@V?$allocator@V?$basic_string@DU?$char_traits@D@std@@V?$allocator@D@2@@std@@@2@@std@@QEAAAEAV01@AEBV01@@Z
	??4_Iterator_base12@std@@QEAAAEAU01@AEBU01@@Z
	??4_TaskCreationCallstack@details@Concurrency@@QEAAAEAV012@AEBV012@@Z
	??4connect_options@mqtt@@QEAAAEAV01@$$QEAV01@@Z
	??4connect_options@mqtt@@QEAAAEAV01@AEBV01@@Z
	??4disconnect_options@mqtt@@QEAAAEAV01@$$QEAV01@@Z
	??4disconnect_options@mqtt@@QEAAAEAV01@AEBV01@@Z
	??4exception_ptr@std@@QEAAAEAV01@AEBV01@@Z
	??4message@mqtt@@QEAAAEAV01@$$QEAV01@@Z
	??4message@mqtt@@QEAAAEAV01@AEBV01@@Z
	??4property@mqtt@@QEAAAEAV01@$$QEAV01@@Z
	??4property@mqtt@@QEAAAEAV01@AEBV01@@Z
	??4ssl_options@mqtt@@QEAAAEAV01@$$QEAV01@@Z
	??4ssl_options@mqtt@@QEAAAEAV01@AEBV01@@Z
	??4string_collection@mqtt@@QEAAAEAV01@AEBV01@@Z
	??4will_options@mqtt@@QEAAAEAV01@$$QEAV01@@Z
	??4will_options@mqtt@@QEAAAEAV01@AEBV01@@Z
	??8?$_List_const_iterator@V?$_List_val@U?$_List_simple_types@V?$shared_ptr@Vdelivery_token@mqtt@@@std@@@std@@@std@@@std@@QEBA_NAEBV01@@Z
	??8?$_List_const_iterator@V?$_List_val@U?$_List_simple_types@V?$shared_ptr@Vtoken@mqtt@@@std@@@std@@@std@@@std@@QEBA_NAEBV01@@Z
	??8?$_List_unchecked_const_iterator@V?$_List_val@U?$_List_simple_types@V?$shared_ptr@Vdelivery_token@mqtt@@@std@@@std@@@std@@U_Iterator_base0@2@@std@@QEBA_NAEBV01@@Z
	??8_ContextCallback@details@Concurrency@@QEBA_NAEBV012@@Z
	??8error_category@std@@QEBA_NAEBV01@@Z
	??8std@@YA_NAEBVerror_condition@0@0@Z
	??8type_info@@QEBA_NAEBV0@@Z
	??9?$_List_const_iterator@V?$_List_val@U?$_List_simple_types@V?$shared_ptr@Vdelivery_token@mqtt@@@std@@@std@@@std@@@std@@QEBA_NAEBV01@@Z
	??9?$_List_const_iterator@V?$_List_val@U?$_List_simple_types@V?$shared_ptr@Vtoken@mqtt@@@std@@@std@@@std@@@std@@QEBA_NAEBV01@@Z
	??9?$_List_unchecked_const_iterator@V?$_List_val@U?$_List_simple_types@V?$shared_ptr@Vdelivery_token@mqtt@@@std@@@std@@@std@@U_Iterator_base0@2@@std@@QEBA_NAEBV01@@Z
	??A?$vector@PEAXV?$allocator@PEAX@std@@@std@@QEAAAEAPEAX_K@Z
	??B?$atomic@J@std@@QEBAJXZ
	??B?$buffer_ref@D@mqtt@@QEBA_NXZ
	??B?$function@$$A6AXAEBV?$basic_string@DU?$char_traits@D@std@@V?$allocator@D@2@@std@@@Z@std@@QEBA_NXZ
	??B?$function@$$A6AXV?$shared_ptr@$$CBVmessage@mqtt@@@std@@@Z@std@@QEBA_NXZ
	??B?$function@$$A6AXXZ@std@@QEBA_NXZ
	??B?$shared_ptr@$$CBV?$basic_string@DU?$char_traits@D@std@@V?$allocator@D@2@@std@@@std@@QEBA_NXZ
	??B?$shared_ptr@$$CBVmessage@mqtt@@@std@@QEBA_NXZ
	??B?$shared_ptr@$$CBVstring_collection@mqtt@@@std@@QEBA_NXZ
	??B?$shared_ptr@U?$_Task_impl@E@details@Concurrency@@@std@@QEBA_NXZ
	??B?$shared_ptr@U_ExceptionHolder@details@Concurrency@@@std@@QEBA_NXZ
	??B?$shared_ptr@Uscheduler_interface@Concurrency@@@std@@QEBA_NXZ
	??B?$shared_ptr@Vdelivery_token@mqtt@@@std@@QEBA_NXZ
	??B?$shared_ptr@Vtoken@mqtt@@@std@@QEBA_NXZ
	??B?$unique_ptr@Usubscribe_response@mqtt@@U?$default_delete@Usubscribe_response@mqtt@@@std@@@std@@QEBA_NXZ
	??B?$unique_ptr@V?$thread_queue@V?$shared_ptr@$$CBVmessage@mqtt@@@std@@V?$deque@V?$shared_ptr@$$CBVmessage@mqtt@@@std@@V?$allocator@V?$shared_ptr@$$CBVmessage@mqtt@@@std@@@2@@2@@mqtt@@U?$default_delete@V?$thread_queue@V?$shared_ptr@$$CBVmessage@mqtt@@@std@@V?$deque@V?$shared_ptr@$$CBVmessage@mqtt@@@std@@V?$allocator@V?$shared_ptr@$$CBVmessage@mqtt@@@std@@@2@@2@@mqtt@@@std@@@std@@QEBA_NXZ
	??B?$unique_ptr@Vconnect_response@mqtt@@U?$default_delete@Vconnect_response@mqtt@@@std@@@std@@QEBA_NXZ
	??B?$unique_ptr@Vunsubscribe_response@mqtt@@U?$default_delete@Vunsubscribe_response@mqtt@@@std@@@std@@QEBA_NXZ
	??Bexception_ptr@std@@QEBA_NXZ
	??Bscheduler_ptr@Concurrency@@QEBA_NXZ
	??C?$_List_iterator@V?$_List_val@U?$_List_simple_types@V?$shared_ptr@Vdelivery_token@mqtt@@@std@@@std@@@std@@@std@@QEBAPEAV?$shared_ptr@Vdelivery_token@mqtt@@@1@XZ
	??C?$_List_iterator@V?$_List_val@U?$_List_simple_types@V?$shared_ptr@Vtoken@mqtt@@@std@@@std@@@std@@@std@@QEBAPEAV?$shared_ptr@Vtoken@mqtt@@@1@XZ
	??C?$unique_ptr@U_TaskProcHandle@details@Concurrency@@U?$default_delete@U_TaskProcHandle@details@Concurrency@@@std@@@std@@QEBAPEAU_TaskProcHandle@details@Concurrency@@XZ
	??C?$unique_ptr@V?$thread_queue@V?$shared_ptr@$$CBVmessage@mqtt@@@std@@V?$deque@V?$shared_ptr@$$CBVmessage@mqtt@@@std@@V?$allocator@V?$shared_ptr@$$CBVmessage@mqtt@@@std@@@2@@2@@mqtt@@U?$default_delete@V?$thread_queue@V?$shared_ptr@$$CBVmessage@mqtt@@@std@@V?$deque@V?$shared_ptr@$$CBVmessage@mqtt@@@std@@V?$allocator@V?$shared_ptr@$$CBVmessage@mqtt@@@std@@@2@@2@@mqtt@@@std@@@std@@QEBAPEAV?$thread_queue@V?$shared_ptr@$$CBVmessage@mqtt@@@std@@V?$deque@V?$shared_ptr@$$CBVmessage@mqtt@@@std@@V?$allocator@V?$shared_ptr@$$CBVmessage@mqtt@@@std@@@2@@2@@mqtt@@XZ
	??C?$unique_ptr@V_PPLTaskChore@_DefaultPPLTaskScheduler@details@Concurrency@@U?$default_delete@V_PPLTaskChore@_DefaultPPLTaskScheduler@details@Concurrency@@@std@@@std@@QEBAPEAV_PPLTaskChore@_DefaultPPLTaskScheduler@details@Concurrency@@XZ
	??Cscheduler_ptr@Concurrency@@QEBAPEAUscheduler_interface@1@XZ
	??D?$_List_const_iterator@V?$_List_val@U?$_List_simple_types@V?$shared_ptr@Vdelivery_token@mqtt@@@std@@@std@@@std@@@std@@QEBAAEBV?$shared_ptr@Vdelivery_token@mqtt@@@1@XZ
	??D?$_List_const_iterator@V?$_List_val@U?$_List_simple_types@V?$shared_ptr@Vtoken@mqtt@@@std@@@std@@@std@@@std@@QEBAAEBV?$shared_ptr@Vtoken@mqtt@@@1@XZ
	??D?$_List_iterator@V?$_List_val@U?$_List_simple_types@V?$shared_ptr@Vdelivery_token@mqtt@@@std@@@std@@@std@@@std@@QEBAAEAV?$shared_ptr@Vdelivery_token@mqtt@@@1@XZ
	??D?$_List_iterator@V?$_List_val@U?$_List_simple_types@V?$shared_ptr@Vtoken@mqtt@@@std@@@std@@@std@@@std@@QEBAAEAV?$shared_ptr@Vtoken@mqtt@@@1@XZ
	??D?$_List_unchecked_const_iterator@V?$_List_val@U?$_List_simple_types@V?$shared_ptr@Vdelivery_token@mqtt@@@std@@@std@@@std@@U_Iterator_base0@2@@std@@QEBAAEBV?$shared_ptr@Vdelivery_token@mqtt@@@1@XZ
	??D?$unique_ptr@Usubscribe_response@mqtt@@U?$default_delete@Usubscribe_response@mqtt@@@std@@@std@@QEBAAEAUsubscribe_response@mqtt@@XZ
	??D?$unique_ptr@Vconnect_response@mqtt@@U?$default_delete@Vconnect_response@mqtt@@@std@@@std@@QEBAAEAVconnect_response@mqtt@@XZ
	??D?$unique_ptr@Vunsubscribe_response@mqtt@@U?$default_delete@Vunsubscribe_response@mqtt@@@std@@@std@@QEBAAEAVunsubscribe_response@mqtt@@XZ
	??E?$_List_const_iterator@V?$_List_val@U?$_List_simple_types@V?$shared_ptr@Vdelivery_token@mqtt@@@std@@@std@@@std@@@std@@QEAA?AV01@H@Z
	??E?$_List_const_iterator@V?$_List_val@U?$_List_simple_types@V?$shared_ptr@Vdelivery_token@mqtt@@@std@@@std@@@std@@@std@@QEAAAEAV01@XZ
	??E?$_List_const_iterator@V?$_List_val@U?$_List_simple_types@V?$shared_ptr@Vtoken@mqtt@@@std@@@std@@@std@@@std@@QEAA?AV01@H@Z
	??E?$_List_const_iterator@V?$_List_val@U?$_List_simple_types@V?$shared_ptr@Vtoken@mqtt@@@std@@@std@@@std@@@std@@QEAAAEAV01@XZ
	??E?$_List_iterator@V?$_List_val@U?$_List_simple_types@V?$shared_ptr@Vdelivery_token@mqtt@@@std@@@std@@@std@@@std@@QEAAAEAV01@XZ
	??E?$_List_iterator@V?$_List_val@U?$_List_simple_types@V?$shared_ptr@Vtoken@mqtt@@@std@@@std@@@std@@@std@@QEAAAEAV01@XZ
	??E?$_List_unchecked_const_iterator@V?$_List_val@U?$_List_simple_types@V?$shared_ptr@Vdelivery_token@mqtt@@@std@@@std@@@std@@U_Iterator_base0@2@@std@@QEAAAEAV01@XZ
	??R<lambda_052e919cc0e5399df76dff3972c0cac1>@@QEBAEXZ
	??R<lambda_0e64988457575224279dcb6d61e61bdd>@@QEBAXXZ
	??R<lambda_16db0a518715f6321653a25f2424e302>@@QEBAXXZ
	??R<lambda_4d9f54b62c80a46497c8ee29775a19d4>@@QEBAXPEAVstring_collection@mqtt@@@Z
	??R<lambda_65e615be2a453ca0576c979606f46740>@@QEBAXQEADQEBD_K12@Z
	??R<lambda_66f57f934f28d61049862f64df852ff0>@@QEBAXQEAD_KQEBD@Z
	??R<lambda_682f2f383c70f45f1f9b18ee8e8227fb>@@QEBAXPEAVmessage@mqtt@@@Z
	??R<lambda_713ee8bbd6b08550d59c52695cab5ce3>@@QEBAXXZ
	??R<lambda_763529b0c7473cbc215a52d189ac9b18>@@QEBAXXZ
	??R<lambda_8753e8241f2a5a762f79a862fae56c72>@@QEBA_NXZ
	??R<lambda_8e92e37d8b3d280b71634fbe88d54901>@@QEBA_NXZ
	??R<lambda_9013ee9e23efe4882b67eff5b0ecf103>@@QEBAXQEADQEBD_K@Z
	??R<lambda_a1eabba02874cbf8cbb226c45133fc37>@@QEBA_NXZ
	??R<lambda_a28169bf5ada89786cdd03ccb91074b7>@@QEBAXXZ
	??R<lambda_be3e5d9dce35d2c8dbfa8485373731d5>@@QEBAXXZ
	??R<lambda_f25c37099038263181b5186a3fa41b37>@@QEBAXXZ
	??R<lambda_f3a66ab6a0570788f31503db83886f49>@@QEBAXQEADQEBD_K212@Z
	??R?$_Fake_no_copy_callable_adapter@P8callback@mqtt@@EAAXAEBV?$basic_string@DU?$char_traits@D@std@@V?$allocator@D@2@@std@@@ZAEAPEAV12@AEBV34@@std@@QEAAXXZ
	??R?$_Fake_no_copy_callable_adapter@P8callback@mqtt@@EAAXV?$shared_ptr@Vdelivery_token@mqtt@@@std@@@ZAEAPEAV12@AEAV34@@std@@QEAAXXZ
	??R?$_Func_class@E$$V@std@@QEBAEXZ
	??R?$_Func_class@X$$V@std@@QEBAXXZ
	??R?$_Func_class@XAEBV?$basic_string@DU?$char_traits@D@std@@V?$allocator@D@2@@std@@@std@@QEBAXAEBV?$basic_string@DU?$char_traits@D@std@@V?$allocator@D@2@@1@@Z
	??R?$_Func_class@XV?$shared_ptr@$$CBVmessage@mqtt@@@std@@@std@@QEBAXV?$shared_ptr@$$CBVmessage@mqtt@@@1@@Z
	??R?$default_delete@UMQTTClient_persistence@@@std@@QEBAXPEAUMQTTClient_persistence@@@Z
	??R?$default_delete@U_TaskProcHandle@details@Concurrency@@@std@@QEBAXPEAU_TaskProcHandle@details@Concurrency@@@Z
	??R?$default_delete@Usubscribe_response@mqtt@@@std@@QEBAXPEAUsubscribe_response@mqtt@@@Z
	??R?$default_delete@V?$thread_queue@V?$shared_ptr@$$CBVmessage@mqtt@@@std@@V?$deque@V?$shared_ptr@$$CBVmessage@mqtt@@@std@@V?$allocator@V?$shared_ptr@$$CBVmessage@mqtt@@@std@@@2@@2@@mqtt@@@std@@QEBAXPEAV?$thread_queue@V?$shared_ptr@$$CBVmessage@mqtt@@@std@@V?$deque@V?$shared_ptr@$$CBVmessage@mqtt@@@std@@V?$allocator@V?$shared_ptr@$$CBVmessage@mqtt@@@std@@@2@@2@@mqtt@@@Z
	??R?$default_delete@V_PPLTaskChore@_DefaultPPLTaskScheduler@details@Concurrency@@@std@@QEBAXPEAV_PPLTaskChore@_DefaultPPLTaskScheduler@details@Concurrency@@@Z
	??R?$default_delete@Vconnect_response@mqtt@@@std@@QEBAXPEAVconnect_response@mqtt@@@Z
	??R?$default_delete@Vunsubscribe_response@mqtt@@@std@@QEBAXPEAVunsubscribe_response@mqtt@@@Z
	??Y?$basic_string@DU?$char_traits@D@std@@V?$allocator@D@2@@std@@QEAAAEAV01@AEBV01@@Z
	??Y?$basic_string@DU?$char_traits@D@std@@V?$allocator@D@2@@std@@QEAAAEAV01@QEBD@Z
	??Y?$duration@_JU?$ratio@$00$0DLJKMKAA@@std@@@chrono@std@@QEAAAEAV012@AEBV012@@Z
	??Z?$duration@_JU?$ratio@$00$0DLJKMKAA@@std@@@chrono@std@@QEAAAEAV012@AEBV012@@Z
	??_9callback@mqtt@@$B7AA
	??_9callback@mqtt@@$BBA@AA
	??_9callback@mqtt@@$BCA@AA
	??_Dasync_client@mqtt@@QEAAXXZ
	??__FEMPTY_BIN@?1??get_payload@message@mqtt@@QEBAAEBV?$basic_string@DU?$char_traits@D@std@@V?$allocator@D@2@@std@@XZ@YAXXZ
	??__FEMPTY_STR@?1??get_topic@message@mqtt@@QEBAAEBV?$basic_string@DU?$char_traits@D@std@@V?$allocator@D@2@@std@@XZ@YAXXZ
	??__F_S_scheduler@?1??_GetStaticAmbientSchedulerStorage@details@Concurrency@@YAPEAV?$shared_ptr@Uscheduler_interface@Concurrency@@@std@@XZ@YAXXZ
	?Set@?$_ResultHolder@E@details@Concurrency@@QEAAXAEBE@Z
	?WaitUntilStateChangedTo@_TaskCollectionBaseImpl@details@Concurrency@@IEAAXW4_TaskCollectionState@123@@Z
	?_Adjust_manually_vector_aligned@std@@YAXAEAPEAXAEA_K@Z
	?_Adopt@_Iterator_base0@std@@QEAAXPEBX@Z
	?_Adopt@_Iterator_base12@std@@QEAAXPEBU_Container_base12@2@@Z
	?_Alloc_sentinel_and_proxy@?$list@V?$shared_ptr@Vdelivery_token@mqtt@@@std@@V?$allocator@V?$shared_ptr@Vdelivery_token@mqtt@@@std@@@2@@std@@AEAAXXZ
	?_Alloc_sentinel_and_proxy@?$list@V?$shared_ptr@Vtoken@mqtt@@@std@@V?$allocator@V?$shared_ptr@Vtoken@mqtt@@@std@@@2@@std@@AEAAXXZ
	?_Allocate@?$_Alloc_construct_ptr@V?$allocator@U?$_List_node@V?$shared_ptr@Vdelivery_token@mqtt@@@std@@PEAX@std@@@std@@@std@@QEAAXXZ
	?_Allocate@?$_Alloc_construct_ptr@V?$allocator@U?$_List_node@V?$shared_ptr@Vtoken@mqtt@@@std@@PEAX@std@@@std@@@std@@QEAAXXZ
	?_Allocate@_Default_allocate_traits@std@@SAPEAX_K@Z
	?_Already_retrieved@?$_Associated_state@H@std@@QEBA_NXZ
	?_Assign@cancellation_token@Concurrency@@AEAAXPEAV_CancellationTokenState@details@2@@Z
	?_Become_small@?$basic_string@DU?$char_traits@D@std@@V?$allocator@D@2@@std@@AEAAXXZ
	?_Bridge@_TaskProcThunk@details@Concurrency@@SAXPEAX@Z
	?_Buy_nonzero@?$vector@V?$basic_string@DU?$char_traits@D@std@@V?$allocator@D@2@@std@@V?$allocator@V?$basic_string@DU?$char_traits@D@std@@V?$allocator@D@2@@std@@@2@@std@@AEAAX_K@Z
	?_Buy_raw@?$vector@PEAXV?$allocator@PEAX@std@@@std@@AEAAX_K@Z
	?_Buy_raw@?$vector@V?$basic_string@DU?$char_traits@D@std@@V?$allocator@D@2@@std@@V?$allocator@V?$basic_string@DU?$char_traits@D@std@@V?$allocator@D@2@@std@@@2@@std@@AEAAX_K@Z
	?_Buy_raw@?$vector@W4ReasonCode@mqtt@@V?$allocator@W4ReasonCode@mqtt@@@std@@@std@@AEAAX_K@Z
	?_Calculate_growth@?$basic_string@DU?$char_traits@D@std@@V?$allocator@D@2@@std@@AEBA_K_K@Z
	?_Calculate_growth@?$basic_string@DU?$char_traits@D@std@@V?$allocator@D@2@@std@@CA_K_K00@Z
	?_Calculate_growth@?$vector@HV?$allocator@H@std@@@std@@AEBA_K_K@Z
	?_Calculate_growth@?$vector@PEAXV?$allocator@PEAX@std@@@std@@AEBA_K_K@Z
	?_Calculate_growth@?$vector@PEBDV?$allocator@PEBD@std@@@std@@AEBA_K_K@Z
	?_Calculate_growth@?$vector@UMQTTSubscribe_options@@V?$allocator@UMQTTSubscribe_options@@@std@@@std@@AEBA_K_K@Z
	?_Calculate_growth@?$vector@V?$basic_string@DU?$char_traits@D@std@@V?$allocator@D@2@@std@@V?$allocator@V?$basic_string@DU?$char_traits@D@std@@V?$allocator@D@2@@std@@@2@@std@@AEBA_K_K@Z
	?_Calculate_growth@?$vector@V?$buffer_view@D@mqtt@@V?$allocator@V?$buffer_view@D@mqtt@@@std@@@std@@AEBA_K_K@Z
	?_Calculate_growth@?$vector@V?$shared_ptr@Vdelivery_token@mqtt@@@std@@V?$allocator@V?$shared_ptr@Vdelivery_token@mqtt@@@std@@@2@@std@@AEBA_K_K@Z
	?_Calculate_growth@?$vector@W4ReasonCode@mqtt@@V?$allocator@W4ReasonCode@mqtt@@@std@@@std@@AEBA_K_K@Z
	?_CallInContext@_ContextCallback@details@Concurrency@@QEBAXV?$function@$$A6AXXZ@std@@@Z
	?_Call_immediate@?$_Packaged_state@$$A6AXXZ@std@@QEAAXXZ
	?_Callback@_PPLTaskChore@_DefaultPPLTaskScheduler@details@Concurrency@@CAXPEAX@Z
	?_Cancel@_TaskCollectionBaseImpl@details@Concurrency@@QEAAXXZ
	?_Cancel@_Task_impl_base@details@Concurrency@@QEAA_N_N@Z
	?_CancelAndRunContinuations@?$_Task_impl@E@details@Concurrency@@UEAA_N_N00AEBV?$shared_ptr@U_ExceptionHolder@details@Concurrency@@@std@@@Z
	?_CancelWithException@_Task_impl_base@details@Concurrency@@QEAA_NAEBVexception_ptr@std@@@Z
	?_CancelWithExceptionHolder@_Task_impl_base@details@Concurrency@@QEAA_NAEBV?$shared_ptr@U_ExceptionHolder@details@Concurrency@@@std@@_N@Z
	?_CaptureCurrent@_ContextCallback@details@Concurrency@@SA?AV123@XZ
	?_CaptureMultiFramesCallstack@_TaskCreationCallstack@details@Concurrency@@SA?AV123@PEAX_K@Z
	?_Change_array@?$vector@HV?$allocator@H@std@@@std@@AEAAXQEAH_K1@Z
	?_Change_array@?$vector@PEAXV?$allocator@PEAX@std@@@std@@AEAAXQEAPEAX_K1@Z
	?_Change_array@?$vector@PEBDV?$allocator@PEBD@std@@@std@@AEAAXQEAPEBD_K1@Z
	?_Change_array@?$vector@UMQTTSubscribe_options@@V?$allocator@UMQTTSubscribe_options@@@std@@@std@@AEAAXQEAUMQTTSubscribe_options@@_K1@Z
	?_Change_array@?$vector@V?$basic_string@DU?$char_traits@D@std@@V?$allocator@D@2@@std@@V?$allocator@V?$basic_string@DU?$char_traits@D@std@@V?$allocator@D@2@@std@@@2@@std@@AEAAXQEAV?$basic_string@DU?$char_traits@D@std@@V?$allocator@D@2@@2@_K1@Z
	?_Change_array@?$vector@V?$buffer_view@D@mqtt@@V?$allocator@V?$buffer_view@D@mqtt@@@std@@@std@@AEAAXQEAV?$buffer_view@D@mqtt@@_K1@Z
	?_Change_array@?$vector@V?$shared_ptr@Vdelivery_token@mqtt@@@std@@V?$allocator@V?$shared_ptr@Vdelivery_token@mqtt@@@std@@@2@@std@@AEAAXQEAV?$shared_ptr@Vdelivery_token@mqtt@@@2@_K1@Z
	?_Change_array@?$vector@W4ReasonCode@mqtt@@V?$allocator@W4ReasonCode@mqtt@@@std@@@std@@AEAAXQEAW4ReasonCode@mqtt@@_K1@Z
	?_Check_C_return@std@@YAHH@Z
	?_Check_memory_order@std@@YAXW4memory_order@1@@Z
	?_Check_offset@?$_String_val@U?$_Simple_types@D@std@@@std@@QEBAX_K@Z
	?_Clear@cancellation_token@Concurrency@@AEAAXXZ
	?_Clear_and_reserve_geometric@?$vector@PEAXV?$allocator@PEAX@std@@@std@@AEAAX_K@Z
	?_Clear_and_reserve_geometric@?$vector@V?$basic_string@DU?$char_traits@D@std@@V?$allocator@D@2@@std@@V?$allocator@V?$basic_string@DU?$char_traits@D@std@@V?$allocator@D@2@@std@@@2@@std@@AEAAX_K@Z
	?_Complete@_TaskCollectionBaseImpl@details@Concurrency@@QEAAXXZ
	?_Construct@?$basic_string@DU?$char_traits@D@std@@V?$allocator@D@2@@std@@QEAAXQEAD0Urandom_access_iterator_tag@2@@Z
	?_Construct_lv_contents@?$basic_string@DU?$char_traits@D@std@@V?$allocator@D@2@@std@@AEAAXAEBV12@@Z
	?_Copy@?$_Func_impl_no_alloc@V<lambda_052e919cc0e5399df76dff3972c0cac1>@@E$$V@std@@EEBAPEAV?$_Func_base@E$$V@2@PEAX@Z
	?_Copy@?$_Func_impl_no_alloc@V<lambda_16db0a518715f6321653a25f2424e302>@@X$$V@std@@EEBAPEAV?$_Func_base@X$$V@2@PEAX@Z
	?_Copy@?$_Func_impl_no_alloc@V<lambda_713ee8bbd6b08550d59c52695cab5ce3>@@X$$V@std@@EEBAPEAV?$_Func_base@X$$V@2@PEAX@Z
	?_Copy@?$_Func_impl_no_alloc@V<lambda_763529b0c7473cbc215a52d189ac9b18>@@X$$V@std@@EEBAPEAV?$_Func_base@X$$V@2@PEAX@Z
	?_Copy@?$_Func_impl_no_alloc@V<lambda_a28169bf5ada89786cdd03ccb91074b7>@@X$$V@std@@EEBAPEAV?$_Func_base@X$$V@2@PEAX@Z
	?_Copy@?$_Func_impl_no_alloc@V<lambda_f25c37099038263181b5186a3fa41b37>@@X$$V@std@@EEBAPEAV?$_Func_base@X$$V@2@PEAX@Z
	?_Copy@?$_Func_impl_no_alloc@V?$_Fake_no_copy_callable_adapter@P8callback@mqtt@@EAAXAEBV?$basic_string@DU?$char_traits@D@std@@V?$allocator@D@2@@std@@@ZAEAPEAV12@AEBV34@@std@@X$$V@std@@EEBAPEAV?$_Func_base@X$$V@2@PEAX@Z
	?_Copy@?$_Func_impl_no_alloc@V?$_Fake_no_copy_callable_adapter@P8callback@mqtt@@EAAXV?$shared_ptr@Vdelivery_token@mqtt@@@std@@@ZAEAPEAV12@AEAV34@@std@@X$$V@std@@EEBAPEAV?$_Func_base@X$$V@2@PEAX@Z
	?_Copy_assign@?$basic_string@DU?$char_traits@D@std@@V?$allocator@D@2@@std@@AEAAXAEBV12@U?$integral_constant@_N$0A@@2@@Z
	?_Copy_assign@?$vector@PEAXV?$allocator@PEAX@std@@@std@@AEAAXAEBV12@U?$integral_constant@_N$0A@@2@@Z
	?_Copy_assign@?$vector@V?$basic_string@DU?$char_traits@D@std@@V?$allocator@D@2@@std@@V?$allocator@V?$basic_string@DU?$char_traits@D@std@@V?$allocator@D@2@@std@@@2@@std@@AEAAXAEBV12@U?$integral_constant@_N$0A@@2@@Z
	?_Copy_from@?$_State_manager@H@std@@QEAAXAEBV12@@Z
	?_CreateImpl@?$task@E@Concurrency@@QEAAXPEAV_CancellationTokenState@details@2@Uscheduler_ptr@2@@Z
	?_Current_exception@exception_ptr@std@@SA?AV12@XZ
	?_Decref@?$_Ptr_base@$$CBV?$basic_string@DU?$char_traits@D@std@@V?$allocator@D@2@@std@@@std@@IEAAXXZ
	?_Decref@?$_Ptr_base@$$CBVmessage@mqtt@@@std@@IEAAXXZ
	?_Decref@?$_Ptr_base@$$CBVstring_collection@mqtt@@@std@@IEAAXXZ
	?_Decref@?$_Ptr_base@U?$_Task_impl@E@details@Concurrency@@@std@@IEAAXXZ
	?_Decref@?$_Ptr_base@U_ExceptionHolder@details@Concurrency@@@std@@IEAAXXZ
	?_Decref@?$_Ptr_base@U_Task_impl_base@details@Concurrency@@@std@@IEAAXXZ
	?_Decref@?$_Ptr_base@Uscheduler_interface@Concurrency@@@std@@IEAAXXZ
	?_Decref@?$_Ptr_base@V?$basic_string@DU?$char_traits@D@std@@V?$allocator@D@2@@std@@@std@@IEAAXXZ
	?_Decref@?$_Ptr_base@Vdelivery_token@mqtt@@@std@@IEAAXXZ
	?_Decref@?$_Ptr_base@Vmessage@mqtt@@@std@@IEAAXXZ
	?_Decref@?$_Ptr_base@Vstring_collection@mqtt@@@std@@IEAAXXZ
	?_Decref@?$_Ptr_base@Vtoken@mqtt@@@std@@IEAAXXZ
	?_Decref@_Ref_count_base@std@@QEAAXXZ
	?_Decwref@?$_Ptr_base@U_Task_impl_base@details@Concurrency@@@std@@IEAAXXZ
	?_Decwref@?$_Ptr_base@Vdelivery_token@mqtt@@@std@@IEAAXXZ
	?_Decwref@?$_Ptr_base@Vtoken@mqtt@@@std@@IEAAXXZ
	?_Decwref@_Ref_count_base@std@@QEAAXXZ
	?_Delete_this@?$_Associated_state@H@std@@AEAAXXZ
	?_Delete_this@?$_Func_impl_no_alloc@V<lambda_052e919cc0e5399df76dff3972c0cac1>@@E$$V@std@@EEAAX_N@Z
	?_Delete_this@?$_Func_impl_no_alloc@V<lambda_16db0a518715f6321653a25f2424e302>@@X$$V@std@@EEAAX_N@Z
	?_Delete_this@?$_Func_impl_no_alloc@V<lambda_713ee8bbd6b08550d59c52695cab5ce3>@@X$$V@std@@EEAAX_N@Z
	?_Delete_this@?$_Func_impl_no_alloc@V<lambda_763529b0c7473cbc215a52d189ac9b18>@@X$$V@std@@EEAAX_N@Z
	?_Delete_this@?$_Func_impl_no_alloc@V<lambda_a28169bf5ada89786cdd03ccb91074b7>@@X$$V@std@@EEAAX_N@Z
	?_Delete_this@?$_Func_impl_no_alloc@V<lambda_f25c37099038263181b5186a3fa41b37>@@X$$V@std@@EEAAX_N@Z
	?_Delete_this@?$_Func_impl_no_alloc@V?$_Fake_no_copy_callable_adapter@P8callback@mqtt@@EAAXAEBV?$basic_string@DU?$char_traits@D@std@@V?$allocator@D@2@@std@@@ZAEAPEAV12@AEBV34@@std@@X$$V@std@@EEAAX_N@Z
	?_Delete_this@?$_Func_impl_no_alloc@V?$_Fake_no_copy_callable_adapter@P8callback@mqtt@@EAAXV?$shared_ptr@Vdelivery_token@mqtt@@@std@@@ZAEAPEAV12@AEAV34@@std@@X$$V@std@@EEAAX_N@Z
	?_Delete_this@?$_Ref_count_obj@U?$_Task_impl@E@details@Concurrency@@@std@@EEAAXXZ
	?_Delete_this@?$_Ref_count_obj@U_ExceptionHolder@details@Concurrency@@@std@@EEAAXXZ
	?_Delete_this@?$_Ref_count_obj@V?$basic_string@DU?$char_traits@D@std@@V?$allocator@D@2@@std@@@std@@EEAAXXZ
	?_Delete_this@?$_Ref_count_obj@Vdelivery_token@mqtt@@@std@@EEAAXXZ
	?_Delete_this@?$_Ref_count_obj@Vmessage@mqtt@@@std@@EEAAXXZ
	?_Delete_this@?$_Ref_count_obj@Vstring_collection@mqtt@@@std@@EEAAXXZ
	?_Delete_this@?$_Ref_count_obj@Vtoken@mqtt@@@std@@EEAAXXZ
	?_Delete_this@?$_Ref_count_resource@PEAVmessage@mqtt@@V<lambda_682f2f383c70f45f1f9b18ee8e8227fb>@@@std@@EEAAXXZ
	?_Delete_this@?$_Ref_count_resource@PEAVstring_collection@mqtt@@V<lambda_4d9f54b62c80a46497c8ee29775a19d4>@@@std@@EEAAXXZ
	?_DeregisterCallback@_CancellationTokenState@details@Concurrency@@QEAAXPEAV_CancellationTokenRegistration@23@@Z
	?_DeregisterCancellation@_Task_impl_base@details@Concurrency@@QEAAXXZ
	?_Destroy@?$_Ref_count_obj@U?$_Task_impl@E@details@Concurrency@@@std@@EEAAXXZ
	?_Destroy@?$_Ref_count_obj@U_ExceptionHolder@details@Concurrency@@@std@@EEAAXXZ
	?_Destroy@?$_Ref_count_obj@V?$basic_string@DU?$char_traits@D@std@@V?$allocator@D@2@@std@@@std@@EEAAXXZ
	?_Destroy@?$_Ref_count_obj@Vdelivery_token@mqtt@@@std@@EEAAXXZ
	?_Destroy@?$_Ref_count_obj@Vmessage@mqtt@@@std@@EEAAXXZ
	?_Destroy@?$_Ref_count_obj@Vstring_collection@mqtt@@@std@@EEAAXXZ
	?_Destroy@?$_Ref_count_obj@Vtoken@mqtt@@@std@@EEAAXXZ
	?_Destroy@?$_Ref_count_resource@PEAVmessage@mqtt@@V<lambda_682f2f383c70f45f1f9b18ee8e8227fb>@@@std@@EEAAXXZ
	?_Destroy@?$_Ref_count_resource@PEAVstring_collection@mqtt@@V<lambda_4d9f54b62c80a46497c8ee29775a19d4>@@@std@@EEAAXXZ
	?_Destroy@?$vector@HV?$allocator@H@std@@@std@@AEAAXPEAH0@Z
	?_Destroy@?$vector@PEAXV?$allocator@PEAX@std@@@std@@AEAAXPEAPEAX0@Z
	?_Destroy@?$vector@PEBDV?$allocator@PEBD@std@@@std@@AEAAXPEAPEBD0@Z
	?_Destroy@?$vector@UMQTTSubscribe_options@@V?$allocator@UMQTTSubscribe_options@@@std@@@std@@AEAAXPEAUMQTTSubscribe_options@@0@Z
	?_Destroy@?$vector@V?$basic_string@DU?$char_traits@D@std@@V?$allocator@D@2@@std@@V?$allocator@V?$basic_string@DU?$char_traits@D@std@@V?$allocator@D@2@@std@@@2@@std@@AEAAXPEAV?$basic_string@DU?$char_traits@D@std@@V?$allocator@D@2@@2@0@Z
	?_Destroy@?$vector@V?$buffer_view@D@mqtt@@V?$allocator@V?$buffer_view@D@mqtt@@@std@@@std@@AEAAXPEAV?$buffer_view@D@mqtt@@0@Z
	?_Destroy@?$vector@V?$shared_ptr@Vdelivery_token@mqtt@@@std@@V?$allocator@V?$shared_ptr@Vdelivery_token@mqtt@@@std@@@2@@std@@AEAAXPEAV?$shared_ptr@Vdelivery_token@mqtt@@@2@0@Z
	?_Destroy@?$vector@Vsubscribe_options@mqtt@@V?$allocator@Vsubscribe_options@mqtt@@@std@@@std@@AEAAXPEAVsubscribe_options@mqtt@@0@Z
	?_Destroy@?$vector@W4ReasonCode@mqtt@@V?$allocator@W4ReasonCode@mqtt@@@std@@@std@@AEAAXPEAW4ReasonCode@mqtt@@0@Z
	?_Destroy@_RefCounter@details@Concurrency@@MEAAXXZ
	?_Do_call@?$_Func_impl_no_alloc@V<lambda_052e919cc0e5399df76dff3972c0cac1>@@E$$V@std@@EEAAEXZ
	?_Do_call@?$_Func_impl_no_alloc@V<lambda_16db0a518715f6321653a25f2424e302>@@X$$V@std@@EEAAXXZ
	?_Do_call@?$_Func_impl_no_alloc@V<lambda_713ee8bbd6b08550d59c52695cab5ce3>@@X$$V@std@@EEAAXXZ
	?_Do_call@?$_Func_impl_no_alloc@V<lambda_763529b0c7473cbc215a52d189ac9b18>@@X$$V@std@@EEAAXXZ
	?_Do_call@?$_Func_impl_no_alloc@V<lambda_a28169bf5ada89786cdd03ccb91074b7>@@X$$V@std@@EEAAXXZ
	?_Do_call@?$_Func_impl_no_alloc@V<lambda_f25c37099038263181b5186a3fa41b37>@@X$$V@std@@EEAAXXZ
	?_Do_call@?$_Func_impl_no_alloc@V?$_Fake_no_copy_callable_adapter@P8callback@mqtt@@EAAXAEBV?$basic_string@DU?$char_traits@D@std@@V?$allocator@D@2@@std@@@ZAEAPEAV12@AEBV34@@std@@X$$V@std@@EEAAXXZ
	?_Do_call@?$_Func_impl_no_alloc@V?$_Fake_no_copy_callable_adapter@P8callback@mqtt@@EAAXV?$shared_ptr@Vdelivery_token@mqtt@@@std@@@ZAEAPEAV12@AEAV34@@std@@X$$V@std@@EEAAXXZ
	?_Do_notify@?$_Associated_state@H@std@@EEAAXPEAV?$unique_lock@Vmutex@std@@@2@_N@Z
	?_Empty@?$_Func_class@E$$V@std@@IEBA_NXZ
	?_Empty@?$_Func_class@X$$V@std@@IEBA_NXZ
	?_Empty@?$_Func_class@XAEBV?$basic_string@DU?$char_traits@D@std@@V?$allocator@D@2@@std@@@std@@IEBA_NXZ
	?_Empty@?$_Func_class@XV?$shared_ptr@$$CBVmessage@mqtt@@@std@@@std@@IEBA_NXZ
	?_Eos@?$basic_string@DU?$char_traits@D@std@@V?$allocator@D@2@@std@@AEAAX_K@Z
	?_Exec@?$_CancellationTokenCallback@V<lambda_be3e5d9dce35d2c8dbfa8485373731d5>@@@details@Concurrency@@MEAAXXZ
	?_FinalizeAndRunContinuations@?$_Task_impl@E@details@Concurrency@@QEAAXE@Z
	?_Future_error_map@std@@YAPEBDH@Z
	?_Get@?$_Func_impl_no_alloc@V<lambda_052e919cc0e5399df76dff3972c0cac1>@@E$$V@std@@EEBAPEBXXZ
	?_Get@?$_Func_impl_no_alloc@V<lambda_16db0a518715f6321653a25f2424e302>@@X$$V@std@@EEBAPEBXXZ
	?_Get@?$_Func_impl_no_alloc@V<lambda_713ee8bbd6b08550d59c52695cab5ce3>@@X$$V@std@@EEBAPEBXXZ
	?_Get@?$_Func_impl_no_alloc@V<lambda_763529b0c7473cbc215a52d189ac9b18>@@X$$V@std@@EEBAPEBXXZ
	?_Get@?$_Func_impl_no_alloc@V<lambda_a28169bf5ada89786cdd03ccb91074b7>@@X$$V@std@@EEBAPEBXXZ
	?_Get@?$_Func_impl_no_alloc@V<lambda_f25c37099038263181b5186a3fa41b37>@@X$$V@std@@EEBAPEBXXZ
	?_Get@?$_Func_impl_no_alloc@V?$_Fake_no_copy_callable_adapter@P8callback@mqtt@@EAAXAEBV?$basic_string@DU?$char_traits@D@std@@V?$allocator@D@2@@std@@@ZAEAPEAV12@AEBV34@@std@@X$$V@std@@EEBAPEBXXZ
	?_Get@?$_Func_impl_no_alloc@V?$_Fake_no_copy_callable_adapter@P8callback@mqtt@@EAAXV?$shared_ptr@Vdelivery_token@mqtt@@@std@@@ZAEAPEAV12@AEAV34@@std@@X$$V@std@@EEBAPEBXXZ
	?_GetExceptionHolder@_Task_impl_base@details@Concurrency@@QEAAAEBV?$shared_ptr@U_ExceptionHolder@details@Concurrency@@@std@@XZ
	?_GetImpl@?$task@E@Concurrency@@QEBAAEBV?$shared_ptr@U?$_Task_impl@E@details@Concurrency@@@std@@XZ
	?_GetImplValue@cancellation_token@Concurrency@@QEBAPEAV_CancellationTokenState@details@2@XZ
	?_GetStaticAmbientSchedulerRef@details@Concurrency@@YAAEAV?$shared_ptr@Uscheduler_interface@Concurrency@@@std@@XZ
	?_GetStaticAmbientSchedulerStorage@details@Concurrency@@YAPEAV?$shared_ptr@Uscheduler_interface@Concurrency@@@std@@XZ
	?_GetTaskCreationCallstack@_Task_impl_base@details@Concurrency@@QEAA?AV_TaskCreationCallstack@23@XZ
	?_Get_data@?$basic_string@DU?$char_traits@D@std@@V?$allocator@D@2@@std@@AEAAAEAV?$_String_val@U?$_Simple_types@D@std@@@2@XZ
	?_Get_data@?$basic_string@DU?$char_traits@D@std@@V?$allocator@D@2@@std@@AEBAAEBV?$_String_val@U?$_Simple_types@D@std@@@2@XZ
	?_Get_data@?$deque@V?$shared_ptr@$$CBVmessage@mqtt@@@std@@V?$allocator@V?$shared_ptr@$$CBVmessage@mqtt@@@std@@@2@@std@@AEAAAEAV?$_Deque_val@U?$_Deque_simple_types@V?$shared_ptr@$$CBVmessage@mqtt@@@std@@@std@@@2@XZ
	?_Get_data@?$deque@V?$shared_ptr@$$CBVmessage@mqtt@@@std@@V?$allocator@V?$shared_ptr@$$CBVmessage@mqtt@@@std@@@2@@std@@AEBAAEBV?$_Deque_val@U?$_Deque_simple_types@V?$shared_ptr@$$CBVmessage@mqtt@@@std@@@std@@@2@XZ
	?_Get_data@?$list@V?$shared_ptr@Vdelivery_token@mqtt@@@std@@V?$allocator@V?$shared_ptr@Vdelivery_token@mqtt@@@std@@@2@@std@@AEAAAEAV?$_List_val@U?$_List_simple_types@V?$shared_ptr@Vdelivery_token@mqtt@@@std@@@std@@@2@XZ
	?_Get_data@?$list@V?$shared_ptr@Vdelivery_token@mqtt@@@std@@V?$allocator@V?$shared_ptr@Vdelivery_token@mqtt@@@std@@@2@@std@@AEBAAEBV?$_List_val@U?$_List_simple_types@V?$shared_ptr@Vdelivery_token@mqtt@@@std@@@std@@@2@XZ
	?_Get_data@?$list@V?$shared_ptr@Vtoken@mqtt@@@std@@V?$allocator@V?$shared_ptr@Vtoken@mqtt@@@std@@@2@@std@@AEAAAEAV?$_List_val@U?$_List_simple_types@V?$shared_ptr@Vtoken@mqtt@@@std@@@std@@@2@XZ
	?_Get_data@?$list@V?$shared_ptr@Vtoken@mqtt@@@std@@V?$allocator@V?$shared_ptr@Vtoken@mqtt@@@std@@@2@@std@@AEBAAEBV?$_List_val@U?$_List_simple_types@V?$shared_ptr@Vtoken@mqtt@@@std@@@std@@@2@XZ
	?_Get_deleter@?$_Ref_count_resource@PEAVmessage@mqtt@@V<lambda_682f2f383c70f45f1f9b18ee8e8227fb>@@@std@@UEBAPEAXAEBVtype_info@@@Z
	?_Get_deleter@?$_Ref_count_resource@PEAVstring_collection@mqtt@@V<lambda_4d9f54b62c80a46497c8ee29775a19d4>@@@std@@UEBAPEAXAEBVtype_info@@@Z
	?_Get_deleter@_Ref_count_base@std@@UEBAPEAXAEBVtype_info@@@Z
	?_Get_first@?$_Compressed_pair@U?$default_delete@UMQTTClient_persistence@@@std@@PEAUMQTTClient_persistence@@$00@std@@QEAAAEAU?$default_delete@UMQTTClient_persistence@@@2@XZ
	?_Get_first@?$_Compressed_pair@U?$default_delete@U_TaskProcHandle@details@Concurrency@@@std@@PEAU_TaskProcHandle@details@Concurrency@@$00@std@@QEAAAEAU?$default_delete@U_TaskProcHandle@details@Concurrency@@@2@XZ
	?_Get_first@?$_Compressed_pair@U?$default_delete@Usubscribe_response@mqtt@@@std@@PEAUsubscribe_response@mqtt@@$00@std@@QEAAAEAU?$default_delete@Usubscribe_response@mqtt@@@2@XZ
	?_Get_first@?$_Compressed_pair@U?$default_delete@V?$thread_queue@V?$shared_ptr@$$CBVmessage@mqtt@@@std@@V?$deque@V?$shared_ptr@$$CBVmessage@mqtt@@@std@@V?$allocator@V?$shared_ptr@$$CBVmessage@mqtt@@@std@@@2@@2@@mqtt@@@std@@PEAV?$thread_queue@V?$shared_ptr@$$CBVmessage@mqtt@@@std@@V?$deque@V?$shared_ptr@$$CBVmessage@mqtt@@@std@@V?$allocator@V?$shared_ptr@$$CBVmessage@mqtt@@@std@@@2@@2@@mqtt@@$00@std@@QEAAAEAU?$default_delete@V?$thread_queue@V?$shared_ptr@$$CBVmessage@mqtt@@@std@@V?$deque@V?$shared_ptr@$$CBVmessage@mqtt@@@std@@V?$allocator@V?$shared_ptr@$$CBVmessage@mqtt@@@std@@@2@@2@@mqtt@@@2@XZ
	?_Get_first@?$_Compressed_pair@U?$default_delete@V_PPLTaskChore@_DefaultPPLTaskScheduler@details@Concurrency@@@std@@PEAV_PPLTaskChore@_DefaultPPLTaskScheduler@details@Concurrency@@$00@std@@QEAAAEAU?$default_delete@V_PPLTaskChore@_DefaultPPLTaskScheduler@details@Concurrency@@@2@XZ
	?_Get_first@?$_Compressed_pair@U?$default_delete@Vconnect_response@mqtt@@@std@@PEAVconnect_response@mqtt@@$00@std@@QEAAAEAU?$default_delete@Vconnect_response@mqtt@@@2@XZ
	?_Get_first@?$_Compressed_pair@U?$default_delete@Vunsubscribe_response@mqtt@@@std@@PEAVunsubscribe_response@mqtt@@$00@std@@QEAAAEAU?$default_delete@Vunsubscribe_response@mqtt@@@2@XZ
	?_Get_first@?$_Compressed_pair@V<lambda_4d9f54b62c80a46497c8ee29775a19d4>@@PEAVstring_collection@mqtt@@$00@std@@QEAAAEAV<lambda_4d9f54b62c80a46497c8ee29775a19d4>@@XZ
	?_Get_first@?$_Compressed_pair@V<lambda_4d9f54b62c80a46497c8ee29775a19d4>@@PEAVstring_collection@mqtt@@$00@std@@QEBAAEBV<lambda_4d9f54b62c80a46497c8ee29775a19d4>@@XZ
	?_Get_first@?$_Compressed_pair@V<lambda_682f2f383c70f45f1f9b18ee8e8227fb>@@PEAVmessage@mqtt@@$00@std@@QEAAAEAV<lambda_682f2f383c70f45f1f9b18ee8e8227fb>@@XZ
	?_Get_first@?$_Compressed_pair@V<lambda_682f2f383c70f45f1f9b18ee8e8227fb>@@PEAVmessage@mqtt@@$00@std@@QEBAAEBV<lambda_682f2f383c70f45f1f9b18ee8e8227fb>@@XZ
	?_Get_first@?$_Compressed_pair@V?$allocator@D@std@@V?$_String_val@U?$_Simple_types@D@std@@@2@$00@std@@QEAAAEAV?$allocator@D@2@XZ
	?_Get_first@?$_Compressed_pair@V?$allocator@D@std@@V?$_String_val@U?$_Simple_types@D@std@@@2@$00@std@@QEBAAEBV?$allocator@D@2@XZ
	?_Get_first@?$_Compressed_pair@V?$allocator@H@std@@V?$_Vector_val@U?$_Simple_types@H@std@@@2@$00@std@@QEAAAEAV?$allocator@H@2@XZ
	?_Get_first@?$_Compressed_pair@V?$allocator@H@std@@V?$_Vector_val@U?$_Simple_types@H@std@@@2@$00@std@@QEBAAEBV?$allocator@H@2@XZ
	?_Get_first@?$_Compressed_pair@V?$allocator@PEAX@std@@V?$_Vector_val@U?$_Simple_types@PEAX@std@@@2@$00@std@@QEAAAEAV?$allocator@PEAX@2@XZ
	?_Get_first@?$_Compressed_pair@V?$allocator@PEAX@std@@V?$_Vector_val@U?$_Simple_types@PEAX@std@@@2@$00@std@@QEBAAEBV?$allocator@PEAX@2@XZ
	?_Get_first@?$_Compressed_pair@V?$allocator@PEBD@std@@V?$_Vector_val@U?$_Simple_types@PEBD@std@@@2@$00@std@@QEAAAEAV?$allocator@PEBD@2@XZ
	?_Get_first@?$_Compressed_pair@V?$allocator@PEBD@std@@V?$_Vector_val@U?$_Simple_types@PEBD@std@@@2@$00@std@@QEBAAEBV?$allocator@PEBD@2@XZ
	?_Get_first@?$_Compressed_pair@V?$allocator@U?$_List_node@V?$shared_ptr@Vdelivery_token@mqtt@@@std@@PEAX@std@@@std@@V?$_List_val@U?$_List_simple_types@V?$shared_ptr@Vdelivery_token@mqtt@@@std@@@std@@@2@$00@std@@QEAAAEAV?$allocator@U?$_List_node@V?$shared_ptr@Vdelivery_token@mqtt@@@std@@PEAX@std@@@2@XZ
	?_Get_first@?$_Compressed_pair@V?$allocator@U?$_List_node@V?$shared_ptr@Vdelivery_token@mqtt@@@std@@PEAX@std@@@std@@V?$_List_val@U?$_List_simple_types@V?$shared_ptr@Vdelivery_token@mqtt@@@std@@@std@@@2@$00@std@@QEBAAEBV?$allocator@U?$_List_node@V?$shared_ptr@Vdelivery_token@mqtt@@@std@@PEAX@std@@@2@XZ
	?_Get_first@?$_Compressed_pair@V?$allocator@U?$_List_node@V?$shared_ptr@Vtoken@mqtt@@@std@@PEAX@std@@@std@@V?$_List_val@U?$_List_simple_types@V?$shared_ptr@Vtoken@mqtt@@@std@@@std@@@2@$00@std@@QEAAAEAV?$allocator@U?$_List_node@V?$shared_ptr@Vtoken@mqtt@@@std@@PEAX@std@@@2@XZ
	?_Get_first@?$_Compressed_pair@V?$allocator@U?$_List_node@V?$shared_ptr@Vtoken@mqtt@@@std@@PEAX@std@@@std@@V?$_List_val@U?$_List_simple_types@V?$shared_ptr@Vtoken@mqtt@@@std@@@std@@@2@$00@std@@QEBAAEBV?$allocator@U?$_List_node@V?$shared_ptr@Vtoken@mqtt@@@std@@PEAX@std@@@2@XZ
	?_Get_first@?$_Compressed_pair@V?$allocator@UMQTTSubscribe_options@@@std@@V?$_Vector_val@U?$_Simple_types@UMQTTSubscribe_options@@@std@@@2@$00@std@@QEAAAEAV?$allocator@UMQTTSubscribe_options@@@2@XZ
	?_Get_first@?$_Compressed_pair@V?$allocator@UMQTTSubscribe_options@@@std@@V?$_Vector_val@U?$_Simple_types@UMQTTSubscribe_options@@@std@@@2@$00@std@@QEBAAEBV?$allocator@UMQTTSubscribe_options@@@2@XZ
	?_Get_first@?$_Compressed_pair@V?$allocator@V?$basic_string@DU?$char_traits@D@std@@V?$allocator@D@2@@std@@@std@@V?$_Vector_val@U?$_Simple_types@V?$basic_string@DU?$char_traits@D@std@@V?$allocator@D@2@@std@@@std@@@2@$00@std@@QEAAAEAV?$allocator@V?$basic_string@DU?$char_traits@D@std@@V?$allocator@D@2@@std@@@2@XZ
	?_Get_first@?$_Compressed_pair@V?$allocator@V?$basic_string@DU?$char_traits@D@std@@V?$allocator@D@2@@std@@@std@@V?$_Vector_val@U?$_Simple_types@V?$basic_string@DU?$char_traits@D@std@@V?$allocator@D@2@@std@@@std@@@2@$00@std@@QEBAAEBV?$allocator@V?$basic_string@DU?$char_traits@D@std@@V?$allocator@D@2@@std@@@2@XZ
	?_Get_first@?$_Compressed_pair@V?$allocator@V?$buffer_view@D@mqtt@@@std@@V?$_Vector_val@U?$_Simple_types@V?$buffer_view@D@mqtt@@@std@@@2@$00@std@@QEAAAEAV?$allocator@V?$buffer_view@D@mqtt@@@2@XZ
	?_Get_first@?$_Compressed_pair@V?$allocator@V?$buffer_view@D@mqtt@@@std@@V?$_Vector_val@U?$_Simple_types@V?$buffer_view@D@mqtt@@@std@@@2@$00@std@@QEBAAEBV?$allocator@V?$buffer_view@D@mqtt@@@2@XZ
	?_Get_first@?$_Compressed_pair@V?$allocator@V?$shared_ptr@$$CBVmessage@mqtt@@@std@@@std@@V?$_Deque_val@U?$_Deque_simple_types@V?$shared_ptr@$$CBVmessage@mqtt@@@std@@@std@@@2@$00@std@@QEAAAEAV?$allocator@V?$shared_ptr@$$CBVmessage@mqtt@@@std@@@2@XZ
	?_Get_first@?$_Compressed_pair@V?$allocator@V?$shared_ptr@$$CBVmessage@mqtt@@@std@@@std@@V?$_Deque_val@U?$_Deque_simple_types@V?$shared_ptr@$$CBVmessage@mqtt@@@std@@@std@@@2@$00@std@@QEBAAEBV?$allocator@V?$shared_ptr@$$CBVmessage@mqtt@@@std@@@2@XZ
	?_Get_first@?$_Compressed_pair@V?$allocator@V?$shared_ptr@Vdelivery_token@mqtt@@@std@@@std@@V?$_Vector_val@U?$_Simple_types@V?$shared_ptr@Vdelivery_token@mqtt@@@std@@@std@@@2@$00@std@@QEAAAEAV?$allocator@V?$shared_ptr@Vdelivery_token@mqtt@@@std@@@2@XZ
	?_Get_first@?$_Compressed_pair@V?$allocator@V?$shared_ptr@Vdelivery_token@mqtt@@@std@@@std@@V?$_Vector_val@U?$_Simple_types@V?$shared_ptr@Vdelivery_token@mqtt@@@std@@@std@@@2@$00@std@@QEBAAEBV?$allocator@V?$shared_ptr@Vdelivery_token@mqtt@@@std@@@2@XZ
	?_Get_first@?$_Compressed_pair@V?$allocator@Vsubscribe_options@mqtt@@@std@@V?$_Vector_val@U?$_Simple_types@Vsubscribe_options@mqtt@@@std@@@2@$00@std@@QEAAAEAV?$allocator@Vsubscribe_options@mqtt@@@2@XZ
	?_Get_first@?$_Compressed_pair@V?$allocator@W4ReasonCode@mqtt@@@std@@V?$_Vector_val@U?$_Simple_types@W4ReasonCode@mqtt@@@std@@@2@$00@std@@QEAAAEAV?$allocator@W4ReasonCode@mqtt@@@2@XZ
	?_Get_first@?$_Compressed_pair@V?$allocator@W4ReasonCode@mqtt@@@std@@V?$_Vector_val@U?$_Simple_types@W4ReasonCode@mqtt@@@std@@@2@$00@std@@QEBAAEBV?$allocator@W4ReasonCode@mqtt@@@2@XZ
	?_Get_state_for_future@?$_Promise@H@std@@QEAAAEAV?$_State_manager@H@2@XZ
	?_Get_value@?$_Associated_state@H@std@@UEAAAEAH_N@Z
	?_Get_value@?$_Task_async_state@X@std@@UEAAAEAH_N@Z
	?_Getal@?$basic_string@DU?$char_traits@D@std@@V?$allocator@D@2@@std@@AEAAAEAV?$allocator@D@2@XZ
	?_Getal@?$basic_string@DU?$char_traits@D@std@@V?$allocator@D@2@@std@@AEBAAEBV?$allocator@D@2@XZ
	?_Getal@?$deque@V?$shared_ptr@$$CBVmessage@mqtt@@@std@@V?$allocator@V?$shared_ptr@$$CBVmessage@mqtt@@@std@@@2@@std@@AEAAAEAV?$allocator@V?$shared_ptr@$$CBVmessage@mqtt@@@std@@@2@XZ
	?_Getal@?$deque@V?$shared_ptr@$$CBVmessage@mqtt@@@std@@V?$allocator@V?$shared_ptr@$$CBVmessage@mqtt@@@std@@@2@@std@@AEBAAEBV?$allocator@V?$shared_ptr@$$CBVmessage@mqtt@@@std@@@2@XZ
	?_Getal@?$list@V?$shared_ptr@Vdelivery_token@mqtt@@@std@@V?$allocator@V?$shared_ptr@Vdelivery_token@mqtt@@@std@@@2@@std@@AEAAAEAV?$allocator@U?$_List_node@V?$shared_ptr@Vdelivery_token@mqtt@@@std@@PEAX@std@@@2@XZ
	?_Getal@?$list@V?$shared_ptr@Vdelivery_token@mqtt@@@std@@V?$allocator@V?$shared_ptr@Vdelivery_token@mqtt@@@std@@@2@@std@@AEBAAEBV?$allocator@U?$_List_node@V?$shared_ptr@Vdelivery_token@mqtt@@@std@@PEAX@std@@@2@XZ
	?_Getal@?$list@V?$shared_ptr@Vtoken@mqtt@@@std@@V?$allocator@V?$shared_ptr@Vtoken@mqtt@@@std@@@2@@std@@AEAAAEAV?$allocator@U?$_List_node@V?$shared_ptr@Vtoken@mqtt@@@std@@PEAX@std@@@2@XZ
	?_Getal@?$list@V?$shared_ptr@Vtoken@mqtt@@@std@@V?$allocator@V?$shared_ptr@Vtoken@mqtt@@@std@@@2@@std@@AEBAAEBV?$allocator@U?$_List_node@V?$shared_ptr@Vtoken@mqtt@@@std@@PEAX@std@@@2@XZ
	?_Getal@?$vector@HV?$allocator@H@std@@@std@@AEAAAEAV?$allocator@H@2@XZ
	?_Getal@?$vector@HV?$allocator@H@std@@@std@@AEBAAEBV?$allocator@H@2@XZ
	?_Getal@?$vector@PEAXV?$allocator@PEAX@std@@@std@@AEAAAEAV?$allocator@PEAX@2@XZ
	?_Getal@?$vector@PEAXV?$allocator@PEAX@std@@@std@@AEBAAEBV?$allocator@PEAX@2@XZ
	?_Getal@?$vector@PEBDV?$allocator@PEBD@std@@@std@@AEAAAEAV?$allocator@PEBD@2@XZ
	?_Getal@?$vector@PEBDV?$allocator@PEBD@std@@@std@@AEBAAEBV?$allocator@PEBD@2@XZ
	?_Getal@?$vector@UMQTTSubscribe_options@@V?$allocator@UMQTTSubscribe_options@@@std@@@std@@AEAAAEAV?$allocator@UMQTTSubscribe_options@@@2@XZ
	?_Getal@?$vector@UMQTTSubscribe_options@@V?$allocator@UMQTTSubscribe_options@@@std@@@std@@AEBAAEBV?$allocator@UMQTTSubscribe_options@@@2@XZ
	?_Getal@?$vector@V?$basic_string@DU?$char_traits@D@std@@V?$allocator@D@2@@std@@V?$allocator@V?$basic_string@DU?$char_traits@D@std@@V?$allocator@D@2@@std@@@2@@std@@AEAAAEAV?$allocator@V?$basic_string@DU?$char_traits@D@std@@V?$allocator@D@2@@std@@@2@XZ
	?_Getal@?$vector@V?$basic_string@DU?$char_traits@D@std@@V?$allocator@D@2@@std@@V?$allocator@V?$basic_string@DU?$char_traits@D@std@@V?$allocator@D@2@@std@@@2@@std@@AEBAAEBV?$allocator@V?$basic_string@DU?$char_traits@D@std@@V?$allocator@D@2@@std@@@2@XZ
	?_Getal@?$vector@V?$buffer_view@D@mqtt@@V?$allocator@V?$buffer_view@D@mqtt@@@std@@@std@@AEAAAEAV?$allocator@V?$buffer_view@D@mqtt@@@2@XZ
	?_Getal@?$vector@V?$buffer_view@D@mqtt@@V?$allocator@V?$buffer_view@D@mqtt@@@std@@@std@@AEBAAEBV?$allocator@V?$buffer_view@D@mqtt@@@2@XZ
	?_Getal@?$vector@V?$shared_ptr@Vdelivery_token@mqtt@@@std@@V?$allocator@V?$shared_ptr@Vdelivery_token@mqtt@@@std@@@2@@std@@AEAAAEAV?$allocator@V?$shared_ptr@Vdelivery_token@mqtt@@@std@@@2@XZ
	?_Getal@?$vector@V?$shared_ptr@Vdelivery_token@mqtt@@@std@@V?$allocator@V?$shared_ptr@Vdelivery_token@mqtt@@@std@@@2@@std@@AEBAAEBV?$allocator@V?$shared_ptr@Vdelivery_token@mqtt@@@std@@@2@XZ
	?_Getal@?$vector@Vsubscribe_options@mqtt@@V?$allocator@Vsubscribe_options@mqtt@@@std@@@std@@AEAAAEAV?$allocator@Vsubscribe_options@mqtt@@@2@XZ
	?_Getal@?$vector@W4ReasonCode@mqtt@@V?$allocator@W4ReasonCode@mqtt@@@std@@@std@@AEAAAEAV?$allocator@W4ReasonCode@mqtt@@@2@XZ
	?_Getal@?$vector@W4ReasonCode@mqtt@@V?$allocator@W4ReasonCode@mqtt@@@std@@@std@@AEBAAEBV?$allocator@W4ReasonCode@mqtt@@@2@XZ
	?_Getblock@?$_Deque_val@U?$_Deque_simple_types@V?$shared_ptr@$$CBVmessage@mqtt@@@std@@@std@@@std@@QEBA_K_K@Z
	?_Getblock@?$deque@V?$shared_ptr@$$CBVmessage@mqtt@@@std@@V?$allocator@V?$shared_ptr@$$CBVmessage@mqtt@@@std@@@2@@std@@AEBA_K_K@Z
	?_Getcont@_Iterator_base12@std@@QEBAPEBU_Container_base12@2@XZ
	?_Getimpl@?$_Func_class@E$$V@std@@AEBAPEAV?$_Func_base@E$$V@2@XZ
	?_Getimpl@?$_Func_class@X$$V@std@@AEBAPEAV?$_Func_base@X$$V@2@XZ
	?_Getimpl@?$_Func_class@XAEBV?$basic_string@DU?$char_traits@D@std@@V?$allocator@D@2@@std@@@std@@AEBAPEAV?$_Func_base@XAEBV?$basic_string@DU?$char_traits@D@std@@V?$allocator@D@2@@std@@@2@XZ
	?_Getimpl@?$_Func_class@XV?$shared_ptr@$$CBVmessage@mqtt@@@std@@@std@@AEBAPEAV?$_Func_base@XV?$shared_ptr@$$CBVmessage@mqtt@@@std@@@2@XZ
	?_Getptr@?$_Ref_count_obj@U?$_Task_impl@E@details@Concurrency@@@std@@QEAAPEAU?$_Task_impl@E@details@Concurrency@@XZ
	?_Getptr@?$_Ref_count_obj@U_ExceptionHolder@details@Concurrency@@@std@@QEAAPEAU_ExceptionHolder@details@Concurrency@@XZ
	?_Getptr@?$_Ref_count_obj@V?$basic_string@DU?$char_traits@D@std@@V?$allocator@D@2@@std@@@std@@QEAAPEAV?$basic_string@DU?$char_traits@D@std@@V?$allocator@D@2@@2@XZ
	?_Getptr@?$_Ref_count_obj@Vdelivery_token@mqtt@@@std@@QEAAPEAVdelivery_token@mqtt@@XZ
	?_Getptr@?$_Ref_count_obj@Vmessage@mqtt@@@std@@QEAAPEAVmessage@mqtt@@XZ
	?_Getptr@?$_Ref_count_obj@Vstring_collection@mqtt@@@std@@QEAAPEAVstring_collection@mqtt@@XZ
	?_Getptr@?$_Ref_count_obj@Vtoken@mqtt@@@std@@QEAAPEAVtoken@mqtt@@XZ
	?_Growmap@?$deque@V?$shared_ptr@$$CBVmessage@mqtt@@@std@@V?$allocator@V?$shared_ptr@$$CBVmessage@mqtt@@@std@@@2@@std@@AEAAX_K@Z
	?_HasCapturedContext@_ContextCallback@details@Concurrency@@QEBA_NXZ
	?_HasUserException@_Task_impl_base@details@Concurrency@@QEAA_NXZ
	?_Has_deferred_function@?$_Associated_state@H@std@@EEBA_NXZ
	?_Has_deferred_function@?$_Deferred_async_state@X@std@@EEBA_NXZ
	?_Incref@_Ref_count_base@std@@QEAAXXZ
	?_Incref_nz@_Ref_count_base@std@@QEAA_NXZ
	?_Incwref@_Ref_count_base@std@@QEAAXXZ
	?_Init@?$_InitialTaskHandle@XV<lambda_16db0a518715f6321653a25f2424e302>@@U_TypeSelectorNoAsync@details@Concurrency@@@?$task@E@Concurrency@@QEBAXU_TypeSelectorNoAsync@details@3@@Z
	?_Init@?$_InitialTaskHandle@XV<lambda_a28169bf5ada89786cdd03ccb91074b7>@@U_TypeSelectorNoAsync@details@Concurrency@@@?$task@E@Concurrency@@QEBAXU_TypeSelectorNoAsync@details@3@@Z
	?_Invoke@_CancellationTokenRegistration@details@Concurrency@@AEAAXXZ
	?_IsCanceled@_CancellationTokenState@details@Concurrency@@QEBA_NXZ
	?_IsCanceled@_Task_impl_base@details@Concurrency@@QEAA_NXZ
	?_IsCompleted@_Task_impl_base@details@Concurrency@@QEAA_NXZ
	?_IsCreated@_Task_impl_base@details@Concurrency@@QEAA_NXZ
	?_IsPendingCancel@_Task_impl_base@details@Concurrency@@QEAA_NXZ
	?_IsStarted@_Task_impl_base@details@Concurrency@@QEAA_NXZ
	?_IsValid@_CancellationTokenState@details@Concurrency@@SA_NPEAV123@@Z
	?_Large_string_engaged@?$_String_val@U?$_Simple_types@D@std@@@std@@QEBA_NXZ
	?_Local@?$_Func_class@E$$V@std@@AEBA_NXZ
	?_Local@?$_Func_class@X$$V@std@@AEBA_NXZ
	?_Local@?$_Func_class@XAEBV?$basic_string@DU?$char_traits@D@std@@V?$allocator@D@2@@std@@@std@@AEBA_NXZ
	?_Local@?$_Func_class@XV?$shared_ptr@$$CBVmessage@mqtt@@@std@@@std@@AEBA_NXZ
	?_LogTaskExecutionStarted@_TaskEventLogger@details@Concurrency@@QEAAXXZ
	?_Make@?$_Task_ptr@E@details@Concurrency@@SA?AV?$shared_ptr@U?$_Task_impl@E@details@Concurrency@@@std@@PEAV_CancellationTokenState@23@Uscheduler_ptr@3@@Z
	?_MakeVoidToUnitFunc@details@Concurrency@@YA?AV?$function@$$A6AEXZ@std@@AEBV?$function@$$A6AXXZ@4@@Z
	?_Make_iter@?$list@V?$shared_ptr@Vdelivery_token@mqtt@@@std@@V?$allocator@V?$shared_ptr@Vdelivery_token@mqtt@@@std@@@2@@std@@QEBA?AV?$_List_iterator@V?$_List_val@U?$_List_simple_types@V?$shared_ptr@Vdelivery_token@mqtt@@@std@@@std@@@std@@@2@V?$_List_const_iterator@V?$_List_val@U?$_List_simple_types@V?$shared_ptr@Vdelivery_token@mqtt@@@std@@@std@@@std@@@2@@Z
	?_Make_iter@?$list@V?$shared_ptr@Vtoken@mqtt@@@std@@V?$allocator@V?$shared_ptr@Vtoken@mqtt@@@std@@@2@@std@@QEBA?AV?$_List_iterator@V?$_List_val@U?$_List_simple_types@V?$shared_ptr@Vtoken@mqtt@@@std@@@std@@@std@@@2@V?$_List_const_iterator@V?$_List_val@U?$_List_simple_types@V?$shared_ptr@Vtoken@mqtt@@@std@@@std@@@std@@@2@@Z
	?_Makestr@_System_error@std@@CA?AV?$basic_string@DU?$char_traits@D@std@@V?$allocator@D@2@@2@Verror_code@2@V32@@Z
	?_Map@?$deque@V?$shared_ptr@$$CBVmessage@mqtt@@@std@@V?$allocator@V?$shared_ptr@$$CBVmessage@mqtt@@@std@@@2@@std@@AEAAAEAPEAPEAV?$shared_ptr@$$CBVmessage@mqtt@@@2@XZ
	?_Mapsize@?$deque@V?$shared_ptr@$$CBVmessage@mqtt@@@std@@V?$allocator@V?$shared_ptr@$$CBVmessage@mqtt@@@std@@@2@@std@@AEAAAEA_KXZ
	?_Maybe_run_deferred_function@?$_Associated_state@H@std@@IEAAXAEAV?$unique_lock@Vmutex@std@@@2@@Z
	?_Memcpy_val_from@?$basic_string@DU?$char_traits@D@std@@V?$allocator@D@2@@std@@AEAAXAEBV12@@Z
	?_Move@?$_Func_impl_no_alloc@V<lambda_052e919cc0e5399df76dff3972c0cac1>@@E$$V@std@@EEAAPEAV?$_Func_base@E$$V@2@PEAX@Z
	?_Move@?$_Func_impl_no_alloc@V<lambda_16db0a518715f6321653a25f2424e302>@@X$$V@std@@EEAAPEAV?$_Func_base@X$$V@2@PEAX@Z
	?_Move@?$_Func_impl_no_alloc@V<lambda_713ee8bbd6b08550d59c52695cab5ce3>@@X$$V@std@@EEAAPEAV?$_Func_base@X$$V@2@PEAX@Z
	?_Move@?$_Func_impl_no_alloc@V<lambda_763529b0c7473cbc215a52d189ac9b18>@@X$$V@std@@EEAAPEAV?$_Func_base@X$$V@2@PEAX@Z
	?_Move@?$_Func_impl_no_alloc@V<lambda_a28169bf5ada89786cdd03ccb91074b7>@@X$$V@std@@EEAAPEAV?$_Func_base@X$$V@2@PEAX@Z
	?_Move@?$_Func_impl_no_alloc@V<lambda_f25c37099038263181b5186a3fa41b37>@@X$$V@std@@EEAAPEAV?$_Func_base@X$$V@2@PEAX@Z
	?_Move@?$_Func_impl_no_alloc@V?$_Fake_no_copy_callable_adapter@P8callback@mqtt@@EAAXAEBV?$basic_string@DU?$char_traits@D@std@@V?$allocator@D@2@@std@@@ZAEAPEAV12@AEBV34@@std@@X$$V@std@@EEAAPEAV?$_Func_base@X$$V@2@PEAX@Z
	?_Move@?$_Func_impl_no_alloc@V?$_Fake_no_copy_callable_adapter@P8callback@mqtt@@EAAXV?$shared_ptr@Vdelivery_token@mqtt@@@std@@@ZAEAPEAV12@AEAV34@@std@@X$$V@std@@EEAAPEAV?$_Func_base@X$$V@2@PEAX@Z
	?_Move_assign@?$basic_string@DU?$char_traits@D@std@@V?$allocator@D@2@@std@@AEAAXAEAV12@U_Equal_allocators@2@@Z
	?_Move_construct@?$vector@PEAXV?$allocator@PEAX@std@@@std@@AEAAXAEAV12@U?$integral_constant@_N$00@2@@Z
	?_Move_construct@?$vector@V?$basic_string@DU?$char_traits@D@std@@V?$allocator@D@2@@std@@V?$allocator@V?$basic_string@DU?$char_traits@D@std@@V?$allocator@D@2@@std@@@2@@std@@AEAAXAEAV12@U?$integral_constant@_N$00@2@@Z
	?_Move_construct@?$vector@V?$shared_ptr@Vdelivery_token@mqtt@@@std@@V?$allocator@V?$shared_ptr@Vdelivery_token@mqtt@@@std@@@2@@std@@AEAAXAEAV12@U?$integral_constant@_N$00@2@@Z
	?_Mycnd@condition_variable@std@@AEAAPEAU_Cnd_internal_imp_t@@XZ
	?_Myhead@?$list@V?$shared_ptr@Vdelivery_token@mqtt@@@std@@V?$allocator@V?$shared_ptr@Vdelivery_token@mqtt@@@std@@@2@@std@@AEAAAEAPEAU?$_List_node@V?$shared_ptr@Vdelivery_token@mqtt@@@std@@PEAX@2@XZ
	?_Myhead@?$list@V?$shared_ptr@Vdelivery_token@mqtt@@@std@@V?$allocator@V?$shared_ptr@Vdelivery_token@mqtt@@@std@@@2@@std@@AEBAAEBQEAU?$_List_node@V?$shared_ptr@Vdelivery_token@mqtt@@@std@@PEAX@2@XZ
	?_Myhead@?$list@V?$shared_ptr@Vtoken@mqtt@@@std@@V?$allocator@V?$shared_ptr@Vtoken@mqtt@@@std@@@2@@std@@AEAAAEAPEAU?$_List_node@V?$shared_ptr@Vtoken@mqtt@@@std@@PEAX@2@XZ
	?_Mymtx@_Mutex_base@std@@AEAAPEAU_Mtx_internal_imp_t@@XZ
	?_Myoff@?$deque@V?$shared_ptr@$$CBVmessage@mqtt@@@std@@V?$allocator@V?$shared_ptr@$$CBVmessage@mqtt@@@std@@@2@@std@@AEAAAEA_KXZ
	?_Myoff@?$deque@V?$shared_ptr@$$CBVmessage@mqtt@@@std@@V?$allocator@V?$shared_ptr@$$CBVmessage@mqtt@@@std@@@2@@std@@AEBAAEB_KXZ
	?_Myptr@?$_String_val@U?$_Simple_types@D@std@@@std@@QEAAPEADXZ
	?_Myptr@?$_String_val@U?$_Simple_types@D@std@@@std@@QEBAPEBDXZ
	?_Mysize@?$deque@V?$shared_ptr@$$CBVmessage@mqtt@@@std@@V?$allocator@V?$shared_ptr@$$CBVmessage@mqtt@@@std@@@2@@std@@AEAAAEA_KXZ
	?_Mysize@?$deque@V?$shared_ptr@$$CBVmessage@mqtt@@@std@@V?$allocator@V?$shared_ptr@$$CBVmessage@mqtt@@@std@@@2@@std@@AEBAAEB_KXZ
	?_NoCallOnDefaultTask_ErrorImpl@_DefaultTaskHelper@details@Concurrency@@SAXXZ
	?_None@_CancellationTokenState@details@Concurrency@@SAPEAV123@XZ
	?_Orphan_all@?$deque@V?$shared_ptr@$$CBVmessage@mqtt@@@std@@V?$allocator@V?$shared_ptr@$$CBVmessage@mqtt@@@std@@@2@@std@@AEAAXXZ
	?_Orphan_all@_Container_base12@std@@QEAAXXZ
	?_Orphan_me@_Iterator_base12@std@@QEAAXXZ
	?_Orphan_off@?$deque@V?$shared_ptr@$$CBVmessage@mqtt@@@std@@V?$allocator@V?$shared_ptr@$$CBVmessage@mqtt@@@std@@@2@@std@@AEBAX_K@Z
	?_Orphan_ptr2@?$_List_val@U?$_List_simple_types@V?$shared_ptr@Vdelivery_token@mqtt@@@std@@@std@@@std@@QEAAXPEAU?$_List_node@V?$shared_ptr@Vdelivery_token@mqtt@@@std@@PEAX@2@@Z
	?_Orphan_ptr2@?$_List_val@U?$_List_simple_types@V?$shared_ptr@Vtoken@mqtt@@@std@@@std@@@std@@QEAAXPEAU?$_List_node@V?$shared_ptr@Vtoken@mqtt@@@std@@PEAX@2@@Z
	?_Orphan_range@?$vector@HV?$allocator@H@std@@@std@@AEBAXPEAH0@Z
	?_Orphan_range@?$vector@PEAXV?$allocator@PEAX@std@@@std@@AEBAXPEAPEAX0@Z
	?_Orphan_range@?$vector@PEBDV?$allocator@PEBD@std@@@std@@AEBAXPEAPEBD0@Z
	?_Orphan_range@?$vector@UMQTTSubscribe_options@@V?$allocator@UMQTTSubscribe_options@@@std@@@std@@AEBAXPEAUMQTTSubscribe_options@@0@Z
	?_Orphan_range@?$vector@V?$basic_string@DU?$char_traits@D@std@@V?$allocator@D@2@@std@@V?$allocator@V?$basic_string@DU?$char_traits@D@std@@V?$allocator@D@2@@std@@@2@@std@@AEBAXPEAV?$basic_string@DU?$char_traits@D@std@@V?$allocator@D@2@@2@0@Z
	?_Orphan_range@?$vector@V?$buffer_view@D@mqtt@@V?$allocator@V?$buffer_view@D@mqtt@@@std@@@std@@AEBAXPEAV?$buffer_view@D@mqtt@@0@Z
	?_Orphan_range@?$vector@V?$shared_ptr@Vdelivery_token@mqtt@@@std@@V?$allocator@V?$shared_ptr@Vdelivery_token@mqtt@@@std@@@2@@std@@AEBAXPEAV?$shared_ptr@Vdelivery_token@mqtt@@@2@0@Z
	?_Orphan_range@?$vector@W4ReasonCode@mqtt@@V?$allocator@W4ReasonCode@mqtt@@@std@@@std@@AEBAXPEAW4ReasonCode@mqtt@@0@Z
	?_Perform@?$_Init_func_transformer@X@Concurrency@@SA?AV?$function@$$A6AEXZ@std@@V?$function@$$A6AXXZ@4@@Z
	?_Perform@?$_InitialTaskHandle@XV<lambda_16db0a518715f6321653a25f2424e302>@@U_TypeSelectorNoAsync@details@Concurrency@@@?$task@E@Concurrency@@QEBAXXZ
	?_Perform@?$_InitialTaskHandle@XV<lambda_a28169bf5ada89786cdd03ccb91074b7>@@U_TypeSelectorNoAsync@details@Concurrency@@@?$task@E@Concurrency@@QEBAXXZ
	?_Reallocate_exactly@?$vector@PEBDV?$allocator@PEBD@std@@@std@@AEAAX_K@Z
	?_Reference@_RefCounter@details@Concurrency@@QEAAJXZ
	?_Register@condition_variable@std@@QEAAXAEAV?$unique_lock@Vmutex@std@@@2@PEAH@Z
	?_RegisterCallback@_CancellationTokenState@details@Concurrency@@QEAAXPEAV_CancellationTokenRegistration@23@@Z
	?_RegisterCancellation@_Task_impl_base@details@Concurrency@@QEAAXV?$weak_ptr@U_Task_impl_base@details@Concurrency@@@std@@@Z
	?_Release@?$_Alloc_construct_ptr@V?$allocator@U?$_List_node@V?$shared_ptr@Vdelivery_token@mqtt@@@std@@PEAX@std@@@std@@@std@@QEAAPEAU?$_List_node@V?$shared_ptr@Vdelivery_token@mqtt@@@std@@PEAX@2@XZ
	?_Release@?$_Alloc_construct_ptr@V?$allocator@U?$_List_node@V?$shared_ptr@Vtoken@mqtt@@@std@@PEAX@std@@@std@@@std@@QEAAPEAU?$_List_node@V?$shared_ptr@Vtoken@mqtt@@@std@@PEAX@2@XZ
	?_Release@?$_Associated_state@H@std@@QEAAXXZ
	?_Release@?$_Uninitialized_backout_al@V?$allocator@V?$basic_string@DU?$char_traits@D@std@@V?$allocator@D@2@@std@@@std@@@std@@QEAAPEAV?$basic_string@DU?$char_traits@D@std@@V?$allocator@D@2@@2@XZ
	?_Release@?$_Uninitialized_backout_al@V?$allocator@V?$buffer_view@D@mqtt@@@std@@@std@@QEAAPEAV?$buffer_view@D@mqtt@@XZ
	?_Release@?$_Uninitialized_backout_al@V?$allocator@V?$shared_ptr@Vdelivery_token@mqtt@@@std@@@std@@@std@@QEAAPEAV?$shared_ptr@Vdelivery_token@mqtt@@@2@XZ
	?_Release@_Basic_container_proxy_ptr12@std@@QEAAXXZ
	?_Release@_RefCounter@details@Concurrency@@QEAAJXZ
	?_Reset_copy@?$_Func_class@X$$V@std@@IEAAXAEBV12@@Z
	?_Reset_copy@?$_Func_class@XAEBV?$basic_string@DU?$char_traits@D@std@@V?$allocator@D@2@@std@@@std@@IEAAXAEBV12@@Z
	?_Reset_copy@?$_Func_class@XV?$shared_ptr@$$CBVmessage@mqtt@@@std@@@std@@IEAAXAEBV12@@Z
	?_Reset_move@?$_Func_class@XAEBV?$basic_string@DU?$char_traits@D@std@@V?$allocator@D@2@@std@@@std@@IEAAX$$QEAV12@@Z
	?_Reset_move@?$_Func_class@XV?$shared_ptr@$$CBVmessage@mqtt@@@std@@@std@@IEAAX$$QEAV12@@Z
	?_Retain@?$_Associated_state@H@std@@QEAAXXZ
	?_RethrowException@exception_ptr@std@@QEBAXXZ
	?_RethrowUserException@_ExceptionHolder@details@Concurrency@@QEAAXXZ
	?_RunAndWait@_TaskCollectionBaseImpl@details@Concurrency@@QEAAXXZ
	?_RunChoreBridge@_TaskProcHandle@details@Concurrency@@SAXPEAX@Z
	?_RunContinuation@_Task_impl_base@details@Concurrency@@QEAAXPEAU_ContinuationTaskHandleBase@23@@Z
	?_RunTask@_TaskCollectionBaseImpl@details@Concurrency@@SAXP6AXPEAX@Z0W4_TaskInliningMode@23@@Z
	?_RunTaskContinuations@_Task_impl_base@details@Concurrency@@QEAAXXZ
	?_Run_deferred_function@?$_Associated_state@H@std@@EEAAXAEAV?$unique_lock@Vmutex@std@@@2@@Z
	?_Run_deferred_function@?$_Deferred_async_state@X@std@@EEAAXAEAV?$unique_lock@Vmutex@std@@@2@@Z
	?_Schedule@_PPLTaskChore@_DefaultPPLTaskScheduler@details@Concurrency@@QEAAXXZ
	?_ScheduleContinuationTask@_Task_impl_base@details@Concurrency@@QEAAXPEAU_ContinuationTaskHandleBase@23@@Z
	?_ScheduleTask@_TaskCollectionBaseImpl@details@Concurrency@@QEAAXPEAU_TaskProcHandle@23@W4_TaskInliningMode@23@@Z
	?_ScheduleTask@_Task_impl_base@details@Concurrency@@QEAAXPEAU_TaskProcHandle@23@W4_TaskInliningMode@23@@Z
	?_Set@?$_Func_class@E$$V@std@@AEAAXPEAV?$_Func_base@E$$V@2@@Z
	?_Set@?$_Func_class@X$$V@std@@AEAAXPEAV?$_Func_base@X$$V@2@@Z
	?_Set@?$_Func_class@XAEBV?$basic_string@DU?$char_traits@D@std@@V?$allocator@D@2@@std@@@std@@AEAAXPEAV?$_Func_base@XAEBV?$basic_string@DU?$char_traits@D@std@@V?$allocator@D@2@@std@@@2@@Z
	?_Set@?$_Func_class@XV?$shared_ptr@$$CBVmessage@mqtt@@@std@@@std@@AEAAXPEAV?$_Func_base@XV?$shared_ptr@$$CBVmessage@mqtt@@@std@@@2@@Z
	?_SetCollectionState@_TaskCollectionBaseImpl@details@Concurrency@@IEAAXW4_TaskCollectionState@123@@Z
	?_SetTaskCreationCallstack@?$task@E@Concurrency@@QEAAXAEBV_TaskCreationCallstack@details@2@@Z
	?_SetTaskCreationCallstack@_Task_impl_base@details@Concurrency@@QEAAXAEBV_TaskCreationCallstack@23@@Z
	?_Set_exception@?$_Associated_state@H@std@@QEAAXVexception_ptr@2@_N@Z
	?_Set_exception_raw@?$_Associated_state@H@std@@QEAAXVexception_ptr@2@PEAV?$unique_lock@Vmutex@std@@@2@_N@Z
	?_Set_ptr_rep@?$_Ptr_base@U?$_Task_impl@E@details@Concurrency@@@std@@IEAAXPEAU?$_Task_impl@E@details@Concurrency@@PEAV_Ref_count_base@2@@Z
	?_Set_ptr_rep@?$_Ptr_base@U_ExceptionHolder@details@Concurrency@@@std@@IEAAXPEAU_ExceptionHolder@details@Concurrency@@PEAV_Ref_count_base@2@@Z
	?_Set_ptr_rep@?$_Ptr_base@V?$basic_string@DU?$char_traits@D@std@@V?$allocator@D@2@@std@@@std@@IEAAXPEAV?$basic_string@DU?$char_traits@D@std@@V?$allocator@D@2@@2@PEAV_Ref_count_base@2@@Z
	?_Set_ptr_rep@?$_Ptr_base@Vdelivery_token@mqtt@@@std@@IEAAXPEAVdelivery_token@mqtt@@PEAV_Ref_count_base@2@@Z
	?_Set_ptr_rep@?$_Ptr_base@Vmessage@mqtt@@@std@@IEAAXPEAVmessage@mqtt@@PEAV_Ref_count_base@2@@Z
	?_Set_ptr_rep@?$_Ptr_base@Vstring_collection@mqtt@@@std@@IEAAXPEAVstring_collection@mqtt@@PEAV_Ref_count_base@2@@Z
	?_Set_ptr_rep@?$_Ptr_base@Vtoken@mqtt@@@std@@IEAAXPEAVtoken@mqtt@@PEAV_Ref_count_base@2@@Z
	?_Set_value@?$_Associated_state@H@std@@QEAAX$$QEAH_N@Z
	?_Set_value_raw@?$_Associated_state@H@std@@QEAAX$$QEAHPEAV?$unique_lock@Vmutex@std@@@2@_N@Z
	?_Swap@?$_Func_class@XAEBV?$basic_string@DU?$char_traits@D@std@@V?$allocator@D@2@@std@@@std@@IEAAXAEAV12@@Z
	?_Swap@?$_Func_class@XV?$shared_ptr@$$CBVmessage@mqtt@@@std@@@std@@IEAAXAEAV12@@Z
	?_Swap@?$_Ptr_base@$$CBV?$basic_string@DU?$char_traits@D@std@@V?$allocator@D@2@@std@@@std@@IEAAXAEAV12@@Z
	?_Swap@?$_Ptr_base@$$CBVstring_collection@mqtt@@@std@@IEAAXAEAV12@@Z
	?_Swap@?$_Ptr_base@U?$_Task_impl@E@details@Concurrency@@@std@@IEAAXAEAV12@@Z
	?_Swap@?$_Ptr_base@U_ExceptionHolder@details@Concurrency@@@std@@IEAAXAEAV12@@Z
	?_Swap@?$_Ptr_base@Vdelivery_token@mqtt@@@std@@IEAAXAEAV12@@Z
	?_Swap@?$_Ptr_base@Vtoken@mqtt@@@std@@IEAAXAEAV12@@Z
	?_Swap_proxy_and_iterators@?$basic_string@DU?$char_traits@D@std@@V?$allocator@D@2@@std@@AEAAXAEAV12@@Z
	?_Swap_proxy_and_iterators@_Container_base12@std@@QEAAXAEAU12@@Z
	?_SyncCancelAndPropagateException@?$_InitialTaskHandle@XV<lambda_16db0a518715f6321653a25f2424e302>@@U_TypeSelectorNoAsync@details@Concurrency@@@?$task@E@Concurrency@@QEBAXXZ
	?_SyncCancelAndPropagateException@?$_InitialTaskHandle@XV<lambda_a28169bf5ada89786cdd03ccb91074b7>@@U_TypeSelectorNoAsync@details@Concurrency@@@?$task@E@Concurrency@@QEBAXXZ
	?_Take_contents@?$basic_string@DU?$char_traits@D@std@@V?$allocator@D@2@@std@@AEAAXAEAV12@U?$integral_constant@_N$00@2@@Z
	?_Take_contents@?$vector@PEAXV?$allocator@PEAX@std@@@std@@AEAAXAEAV12@@Z
	?_Take_contents@?$vector@V?$basic_string@DU?$char_traits@D@std@@V?$allocator@D@2@@std@@V?$allocator@V?$basic_string@DU?$char_traits@D@std@@V?$allocator@D@2@@std@@@2@@std@@AEAAXAEAV12@@Z
	?_Take_contents@?$vector@V?$shared_ptr@Vdelivery_token@mqtt@@@std@@V?$allocator@V?$shared_ptr@Vdelivery_token@mqtt@@@std@@@2@@std@@AEAAXAEAV12@@Z
	?_Target_type@?$_Func_impl_no_alloc@V<lambda_052e919cc0e5399df76dff3972c0cac1>@@E$$V@std@@EEBAAEBVtype_info@@XZ
	?_Target_type@?$_Func_impl_no_alloc@V<lambda_16db0a518715f6321653a25f2424e302>@@X$$V@std@@EEBAAEBVtype_info@@XZ
	?_Target_type@?$_Func_impl_no_alloc@V<lambda_713ee8bbd6b08550d59c52695cab5ce3>@@X$$V@std@@EEBAAEBVtype_info@@XZ
	?_Target_type@?$_Func_impl_no_alloc@V<lambda_763529b0c7473cbc215a52d189ac9b18>@@X$$V@std@@EEBAAEBVtype_info@@XZ
	?_Target_type@?$_Func_impl_no_alloc@V<lambda_a28169bf5ada89786cdd03ccb91074b7>@@X$$V@std@@EEBAAEBVtype_info@@XZ
	?_Target_type@?$_Func_impl_no_alloc@V<lambda_f25c37099038263181b5186a3fa41b37>@@X$$V@std@@EEBAAEBVtype_info@@XZ
	?_Target_type@?$_Func_impl_no_alloc@V?$_Fake_no_copy_callable_adapter@P8callback@mqtt@@EAAXAEBV?$basic_string@DU?$char_traits@D@std@@V?$allocator@D@2@@std@@@ZAEAPEAV12@AEBV34@@std@@X$$V@std@@EEBAAEBVtype_info@@XZ
	?_Target_type@?$_Func_impl_no_alloc@V?$_Fake_no_copy_callable_adapter@P8callback@mqtt@@EAAXV?$shared_ptr@Vdelivery_token@mqtt@@@std@@@ZAEAPEAV12@AEAV34@@std@@X$$V@std@@EEBAAEBVtype_info@@XZ
	?_Tidy@?$_Func_class@E$$V@std@@IEAAXXZ
	?_Tidy@?$_Func_class@X$$V@std@@IEAAXXZ
	?_Tidy@?$_Func_class@XAEBV?$basic_string@DU?$char_traits@D@std@@V?$allocator@D@2@@std@@@std@@IEAAXXZ
	?_Tidy@?$_Func_class@XV?$shared_ptr@$$CBVmessage@mqtt@@@std@@@std@@IEAAXXZ
	?_Tidy@?$deque@V?$shared_ptr@$$CBVmessage@mqtt@@@std@@V?$allocator@V?$shared_ptr@$$CBVmessage@mqtt@@@std@@@2@@std@@AEAAXXZ
	?_Tidy@?$list@V?$shared_ptr@Vdelivery_token@mqtt@@@std@@V?$allocator@V?$shared_ptr@Vdelivery_token@mqtt@@@std@@@2@@std@@AEAAXXZ
	?_Tidy@?$list@V?$shared_ptr@Vtoken@mqtt@@@std@@V?$allocator@V?$shared_ptr@Vtoken@mqtt@@@std@@@2@@std@@AEAAXXZ
	?_Tidy@?$vector@HV?$allocator@H@std@@@std@@AEAAXXZ
	?_Tidy@?$vector@PEAXV?$allocator@PEAX@std@@@std@@AEAAXXZ
	?_Tidy@?$vector@PEBDV?$allocator@PEBD@std@@@std@@AEAAXXZ
	?_Tidy@?$vector@UMQTTSubscribe_options@@V?$allocator@UMQTTSubscribe_options@@@std@@@std@@AEAAXXZ
	?_Tidy@?$vector@V?$basic_string@DU?$char_traits@D@std@@V?$allocator@D@2@@std@@V?$allocator@V?$basic_string@DU?$char_traits@D@std@@V?$allocator@D@2@@std@@@2@@std@@AEAAXXZ
	?_Tidy@?$vector@V?$buffer_view@D@mqtt@@V?$allocator@V?$buffer_view@D@mqtt@@@std@@@std@@AEAAXXZ
	?_Tidy@?$vector@V?$shared_ptr@Vdelivery_token@mqtt@@@std@@V?$allocator@V?$shared_ptr@Vdelivery_token@mqtt@@@std@@@2@@std@@AEAAXXZ
	?_Tidy@?$vector@Vsubscribe_options@mqtt@@V?$allocator@Vsubscribe_options@mqtt@@@std@@@std@@AEAAXXZ
	?_Tidy@?$vector@W4ReasonCode@mqtt@@V?$allocator@W4ReasonCode@mqtt@@@std@@@std@@AEAAXXZ
	?_Tidy_deallocate@?$basic_string@DU?$char_traits@D@std@@V?$allocator@D@2@@std@@AEAAXXZ
	?_Tidy_init@?$basic_string@DU?$char_traits@D@std@@V?$allocator@D@2@@std@@AEAAXXZ
	?_Transfer_before@?$_List_node_emplace_op@V?$allocator@U?$_List_node@V?$shared_ptr@Vdelivery_token@mqtt@@@std@@PEAX@std@@@std@@@std@@QEAAPEAU?$_List_node@V?$shared_ptr@Vdelivery_token@mqtt@@@std@@PEAX@2@QEAU32@@Z
	?_Transfer_before@?$_List_node_emplace_op@V?$allocator@U?$_List_node@V?$shared_ptr@Vtoken@mqtt@@@std@@PEAX@std@@@std@@@std@@QEAAPEAU?$_List_node@V?$shared_ptr@Vtoken@mqtt@@@std@@PEAX@2@QEAU32@@Z
	?_TransitionedToStarted@?$_Task_impl@E@details@Concurrency@@QEAA_NXZ
	?_Ufill@?$vector@PEAXV?$allocator@PEAX@std@@@std@@AEAAPEAPEAXPEAPEAX_KU_Value_init_tag@2@@Z
	?_Umove@?$vector@HV?$allocator@H@std@@@std@@AEAAPEAHPEAH00@Z
	?_Umove@?$vector@PEBDV?$allocator@PEBD@std@@@std@@AEAAPEAPEBDPEAPEBD00@Z
	?_Umove@?$vector@UMQTTSubscribe_options@@V?$allocator@UMQTTSubscribe_options@@@std@@@std@@AEAAPEAUMQTTSubscribe_options@@PEAU3@00@Z
	?_Umove@?$vector@V?$basic_string@DU?$char_traits@D@std@@V?$allocator@D@2@@std@@V?$allocator@V?$basic_string@DU?$char_traits@D@std@@V?$allocator@D@2@@std@@@2@@std@@AEAAPEAV?$basic_string@DU?$char_traits@D@std@@V?$allocator@D@2@@2@PEAV32@00@Z
	?_Umove@?$vector@V?$buffer_view@D@mqtt@@V?$allocator@V?$buffer_view@D@mqtt@@@std@@@std@@AEAAPEAV?$buffer_view@D@mqtt@@PEAV34@00@Z
	?_Umove@?$vector@V?$shared_ptr@Vdelivery_token@mqtt@@@std@@V?$allocator@V?$shared_ptr@Vdelivery_token@mqtt@@@std@@@2@@std@@AEAAPEAV?$shared_ptr@Vdelivery_token@mqtt@@@2@PEAV32@00@Z
	?_Umove@?$vector@W4ReasonCode@mqtt@@V?$allocator@W4ReasonCode@mqtt@@@std@@@std@@AEAAPEAW4ReasonCode@mqtt@@PEAW434@00@Z
	?_Umove_if_noexcept1@?$vector@HV?$allocator@H@std@@@std@@AEAAXPEAH00U?$integral_constant@_N$00@2@@Z
	?_Umove_if_noexcept1@?$vector@PEAXV?$allocator@PEAX@std@@@std@@AEAAXPEAPEAX00U?$integral_constant@_N$00@2@@Z
	?_Umove_if_noexcept1@?$vector@PEBDV?$allocator@PEBD@std@@@std@@AEAAXPEAPEBD00U?$integral_constant@_N$00@2@@Z
	?_Umove_if_noexcept1@?$vector@UMQTTSubscribe_options@@V?$allocator@UMQTTSubscribe_options@@@std@@@std@@AEAAXPEAUMQTTSubscribe_options@@00U?$integral_constant@_N$00@2@@Z
	?_Umove_if_noexcept1@?$vector@V?$basic_string@DU?$char_traits@D@std@@V?$allocator@D@2@@std@@V?$allocator@V?$basic_string@DU?$char_traits@D@std@@V?$allocator@D@2@@std@@@2@@std@@AEAAXPEAV?$basic_string@DU?$char_traits@D@std@@V?$allocator@D@2@@2@00U?$integral_constant@_N$00@2@@Z
	?_Umove_if_noexcept1@?$vector@V?$buffer_view@D@mqtt@@V?$allocator@V?$buffer_view@D@mqtt@@@std@@@std@@AEAAXPEAV?$buffer_view@D@mqtt@@00U?$integral_constant@_N$00@2@@Z
	?_Umove_if_noexcept1@?$vector@V?$shared_ptr@Vdelivery_token@mqtt@@@std@@V?$allocator@V?$shared_ptr@Vdelivery_token@mqtt@@@std@@@2@@std@@AEAAXPEAV?$shared_ptr@Vdelivery_token@mqtt@@@2@00U?$integral_constant@_N$00@2@@Z
	?_Umove_if_noexcept1@?$vector@W4ReasonCode@mqtt@@V?$allocator@W4ReasonCode@mqtt@@@std@@@std@@AEAAXPEAW4ReasonCode@mqtt@@00U?$integral_constant@_N$00@2@@Z
	?_Umove_if_noexcept@?$vector@HV?$allocator@H@std@@@std@@AEAAXPEAH00@Z
	?_Umove_if_noexcept@?$vector@PEAXV?$allocator@PEAX@std@@@std@@AEAAXPEAPEAX00@Z
	?_Umove_if_noexcept@?$vector@PEBDV?$allocator@PEBD@std@@@std@@AEAAXPEAPEBD00@Z
	?_Umove_if_noexcept@?$vector@UMQTTSubscribe_options@@V?$allocator@UMQTTSubscribe_options@@@std@@@std@@AEAAXPEAUMQTTSubscribe_options@@00@Z
	?_Umove_if_noexcept@?$vector@V?$basic_string@DU?$char_traits@D@std@@V?$allocator@D@2@@std@@V?$allocator@V?$basic_string@DU?$char_traits@D@std@@V?$allocator@D@2@@std@@@2@@std@@AEAAXPEAV?$basic_string@DU?$char_traits@D@std@@V?$allocator@D@2@@2@00@Z
	?_Umove_if_noexcept@?$vector@V?$buffer_view@D@mqtt@@V?$allocator@V?$buffer_view@D@mqtt@@@std@@@std@@AEAAXPEAV?$buffer_view@D@mqtt@@00@Z
	?_Umove_if_noexcept@?$vector@V?$shared_ptr@Vdelivery_token@mqtt@@@std@@V?$allocator@V?$shared_ptr@Vdelivery_token@mqtt@@@std@@@2@@std@@AEAAXPEAV?$shared_ptr@Vdelivery_token@mqtt@@@2@00@Z
	?_Umove_if_noexcept@?$vector@W4ReasonCode@mqtt@@V?$allocator@W4ReasonCode@mqtt@@@std@@@std@@AEAAXPEAW4ReasonCode@mqtt@@00@Z
	?_Unchecked_begin@?$list@V?$shared_ptr@Vdelivery_token@mqtt@@@std@@V?$allocator@V?$shared_ptr@Vdelivery_token@mqtt@@@std@@@2@@std@@QEBA?AV?$_List_unchecked_const_iterator@V?$_List_val@U?$_List_simple_types@V?$shared_ptr@Vdelivery_token@mqtt@@@std@@@std@@@std@@U_Iterator_base0@2@@2@XZ
	?_Unchecked_begin@?$vector@V?$basic_string@DU?$char_traits@D@std@@V?$allocator@D@2@@std@@V?$allocator@V?$basic_string@DU?$char_traits@D@std@@V?$allocator@D@2@@std@@@2@@std@@QEAAPEAV?$basic_string@DU?$char_traits@D@std@@V?$allocator@D@2@@2@XZ
	?_Unchecked_begin@?$vector@Vsubscribe_options@mqtt@@V?$allocator@Vsubscribe_options@mqtt@@@std@@@std@@QEBAPEBVsubscribe_options@mqtt@@XZ
	?_Unchecked_end@?$list@V?$shared_ptr@Vdelivery_token@mqtt@@@std@@V?$allocator@V?$shared_ptr@Vdelivery_token@mqtt@@@std@@@2@@std@@QEAA?AV?$_List_unchecked_iterator@V?$_List_val@U?$_List_simple_types@V?$shared_ptr@Vdelivery_token@mqtt@@@std@@@std@@@std@@@2@XZ
	?_Unchecked_end@?$list@V?$shared_ptr@Vdelivery_token@mqtt@@@std@@V?$allocator@V?$shared_ptr@Vdelivery_token@mqtt@@@std@@@2@@std@@QEBA?AV?$_List_unchecked_const_iterator@V?$_List_val@U?$_List_simple_types@V?$shared_ptr@Vdelivery_token@mqtt@@@std@@@std@@@std@@U_Iterator_base0@2@@2@XZ
	?_Unchecked_end@?$list@V?$shared_ptr@Vtoken@mqtt@@@std@@V?$allocator@V?$shared_ptr@Vtoken@mqtt@@@std@@@2@@std@@QEAA?AV?$_List_unchecked_iterator@V?$_List_val@U?$_List_simple_types@V?$shared_ptr@Vtoken@mqtt@@@std@@@std@@@std@@@2@XZ
	?_Unchecked_end@?$vector@V?$basic_string@DU?$char_traits@D@std@@V?$allocator@D@2@@std@@V?$allocator@V?$basic_string@DU?$char_traits@D@std@@V?$allocator@D@2@@std@@@2@@std@@QEAAPEAV?$basic_string@DU?$char_traits@D@std@@V?$allocator@D@2@@2@XZ
	?_Unchecked_end@?$vector@Vsubscribe_options@mqtt@@V?$allocator@Vsubscribe_options@mqtt@@@std@@@std@@QEBAPEBVsubscribe_options@mqtt@@XZ
	?_Unlinknode@?$_List_val@U?$_List_simple_types@V?$shared_ptr@Vdelivery_token@mqtt@@@std@@@std@@@std@@QEAAPEAU?$_List_node@V?$shared_ptr@Vdelivery_token@mqtt@@@std@@PEAX@2@PEAU32@@Z
	?_Unlinknode@?$_List_val@U?$_List_simple_types@V?$shared_ptr@Vtoken@mqtt@@@std@@@std@@@std@@QEAAPEAU?$_List_node@V?$shared_ptr@Vtoken@mqtt@@@std@@PEAX@2@PEAU32@@Z
	?_Unregister@condition_variable@std@@QEAAXAEAVmutex@2@@Z
	?_Validate@?$unique_lock@Vmutex@std@@@std@@AEBAXXZ
	?_Wait@?$_Associated_state@H@std@@UEAAXXZ
	?_Wait@?$_Task_async_state@X@std@@UEAAXXZ
	?_Wait@_TaskCollectionBaseImpl@details@Concurrency@@QEAAXXZ
	?_Wait@_Task_impl_base@details@Concurrency@@QEAA?AW4task_group_status@3@XZ
	?_Xlen@?$basic_string@DU?$char_traits@D@std@@V?$allocator@D@2@@std@@CAXXZ
	?_Xlen@?$deque@V?$shared_ptr@$$CBVmessage@mqtt@@@std@@V?$allocator@V?$shared_ptr@$$CBVmessage@mqtt@@@std@@@2@@std@@AEBAXXZ
	?_Xlength@?$vector@HV?$allocator@H@std@@@std@@CAXXZ
	?_Xlength@?$vector@PEAXV?$allocator@PEAX@std@@@std@@CAXXZ
	?_Xlength@?$vector@PEBDV?$allocator@PEBD@std@@@std@@CAXXZ
	?_Xlength@?$vector@UMQTTSubscribe_options@@V?$allocator@UMQTTSubscribe_options@@@std@@@std@@CAXXZ
	?_Xlength@?$vector@V?$basic_string@DU?$char_traits@D@std@@V?$allocator@D@2@@std@@V?$allocator@V?$basic_string@DU?$char_traits@D@std@@V?$allocator@D@2@@std@@@2@@std@@CAXXZ
	?_Xlength@?$vector@V?$buffer_view@D@mqtt@@V?$allocator@V?$buffer_view@D@mqtt@@@std@@@std@@CAXXZ
	?_Xlength@?$vector@V?$shared_ptr@Vdelivery_token@mqtt@@@std@@V?$allocator@V?$shared_ptr@Vdelivery_token@mqtt@@@std@@@2@@std@@CAXXZ
	?_Xlength@?$vector@W4ReasonCode@mqtt@@V?$allocator@W4ReasonCode@mqtt@@@std@@@std@@CAXXZ
	?_Xran@?$_String_val@U?$_Simple_types@D@std@@@std@@SAXXZ
	?__empty_global_delete@@YAXPEAX@Z
	?__empty_global_delete@@YAXPEAX_K@Z
	?_get_internal_task_options@details@Concurrency@@YAAEAU_Internal_task_options@12@AEAVtask_options@2@@Z
	?_get_internal_task_options@details@Concurrency@@YAAEBU_Internal_task_options@12@AEBVtask_options@2@@Z
	?_set_creation_callstack@_Internal_task_options@details@Concurrency@@QEAAXAEBV_TaskCreationCallstack@23@@Z
	?add_token@async_client@mqtt@@EEAAXV?$shared_ptr@Vdelivery_token@mqtt@@@std@@@Z
	?add_token@async_client@mqtt@@EEAAXV?$shared_ptr@Vtoken@mqtt@@@std@@@Z
	?allocate@?$allocator@D@std@@QEAAPEAD_K@Z
	?allocate@?$allocator@H@std@@QEAAPEAH_K@Z
	?allocate@?$allocator@PEAV?$shared_ptr@$$CBVmessage@mqtt@@@std@@@std@@QEAAPEAPEAV?$shared_ptr@$$CBVmessage@mqtt@@@2@_K@Z
	?allocate@?$allocator@PEAX@std@@QEAAPEAPEAX_K@Z
	?allocate@?$allocator@PEBD@std@@QEAAPEAPEBD_K@Z
	?allocate@?$allocator@U?$_List_node@V?$shared_ptr@Vdelivery_token@mqtt@@@std@@PEAX@std@@@std@@QEAAPEAU?$_List_node@V?$shared_ptr@Vdelivery_token@mqtt@@@std@@PEAX@2@_K@Z
	?allocate@?$allocator@U?$_List_node@V?$shared_ptr@Vtoken@mqtt@@@std@@PEAX@std@@@std@@QEAAPEAU?$_List_node@V?$shared_ptr@Vtoken@mqtt@@@std@@PEAX@2@_K@Z
	?allocate@?$allocator@UMQTTSubscribe_options@@@std@@QEAAPEAUMQTTSubscribe_options@@_K@Z
	?allocate@?$allocator@U_Container_proxy@std@@@std@@QEAAPEAU_Container_proxy@2@_K@Z
	?allocate@?$allocator@V?$basic_string@DU?$char_traits@D@std@@V?$allocator@D@2@@std@@@std@@QEAAPEAV?$basic_string@DU?$char_traits@D@std@@V?$allocator@D@2@@2@_K@Z
	?allocate@?$allocator@V?$buffer_view@D@mqtt@@@std@@QEAAPEAV?$buffer_view@D@mqtt@@_K@Z
	?allocate@?$allocator@V?$shared_ptr@$$CBVmessage@mqtt@@@std@@@std@@QEAAPEAV?$shared_ptr@$$CBVmessage@mqtt@@@2@_K@Z
	?allocate@?$allocator@V?$shared_ptr@Vdelivery_token@mqtt@@@std@@@std@@QEAAPEAV?$shared_ptr@Vdelivery_token@mqtt@@@2@_K@Z
	?allocate@?$allocator@W4ReasonCode@mqtt@@@std@@QEAAPEAW4ReasonCode@mqtt@@_K@Z
	?append@?$basic_string@DU?$char_traits@D@std@@V?$allocator@D@2@@std@@QEAAAEAV12@AEBV12@@Z
	?append@?$basic_string@DU?$char_traits@D@std@@V?$allocator@D@2@@std@@QEAAAEAV12@QEBD@Z
	?append@?$basic_string@DU?$char_traits@D@std@@V?$allocator@D@2@@std@@QEAAAEAV12@QEBD_K@Z
	?assign@?$_Narrow_char_traits@DH@std@@SAXAEADAEBD@Z
	?assign@?$basic_string@DU?$char_traits@D@std@@V?$allocator@D@2@@std@@QEAAAEAV12@QEBD@Z
	?assign@?$basic_string@DU?$char_traits@D@std@@V?$allocator@D@2@@std@@QEAAAEAV12@QEBD_K@Z
	?begin@?$initializer_list@PEBD@std@@QEBAPEBQEBDXZ
	?begin@?$initializer_list@V?$basic_string@DU?$char_traits@D@std@@V?$allocator@D@2@@std@@@std@@QEBAPEBV?$basic_string@DU?$char_traits@D@std@@V?$allocator@D@2@@2@XZ
	?begin@?$initializer_list@Vproperty@mqtt@@@std@@QEBAPEBVproperty@mqtt@@XZ
	?begin@?$list@V?$shared_ptr@Vdelivery_token@mqtt@@@std@@V?$allocator@V?$shared_ptr@Vdelivery_token@mqtt@@@std@@@2@@std@@QEAA?AV?$_List_iterator@V?$_List_val@U?$_List_simple_types@V?$shared_ptr@Vdelivery_token@mqtt@@@std@@@std@@@std@@@2@XZ
	?begin@?$list@V?$shared_ptr@Vtoken@mqtt@@@std@@V?$allocator@V?$shared_ptr@Vtoken@mqtt@@@std@@@2@@std@@QEAA?AV?$_List_iterator@V?$_List_val@U?$_List_simple_types@V?$shared_ptr@Vtoken@mqtt@@@std@@@std@@@std@@@2@XZ
	?c_arr@string_collection@mqtt@@QEBAPEBQEADXZ
	?c_str@?$basic_string@DU?$char_traits@D@std@@V?$allocator@D@2@@std@@QEBAPEBDXZ
	?c_str@?$buffer_ref@D@mqtt@@QEBAPEBDXZ
	?c_str@connect_options@mqtt@@AEAAPEBDAEBV?$buffer_ref@D@2@@Z
	?c_str@ssl_options@mqtt@@AEAAPEBDAEBV?$basic_string@DU?$char_traits@D@std@@V?$allocator@D@2@@std@@@Z
	?c_struct@properties@mqtt@@QEBAAEBUMQTTProperties@@XZ
	?c_struct@property@mqtt@@QEBAAEBUMQTTProperty@@XZ
	?ca_path@ssl_options@mqtt@@QEAAXAEBV?$basic_string@DU?$char_traits@D@std@@V?$allocator@D@2@@std@@@Z
	?capacity@?$basic_string@DU?$char_traits@D@std@@V?$allocator@D@2@@std@@QEBA_KXZ
	?capacity@?$vector@HV?$allocator@H@std@@@std@@QEBA_KXZ
	?capacity@?$vector@PEAXV?$allocator@PEAX@std@@@std@@QEBA_KXZ
	?capacity@?$vector@PEBDV?$allocator@PEBD@std@@@std@@QEBA_KXZ
	?capacity@?$vector@UMQTTSubscribe_options@@V?$allocator@UMQTTSubscribe_options@@@std@@@std@@QEBA_KXZ
	?capacity@?$vector@V?$basic_string@DU?$char_traits@D@std@@V?$allocator@D@2@@std@@V?$allocator@V?$basic_string@DU?$char_traits@D@std@@V?$allocator@D@2@@std@@@2@@std@@QEBA_KXZ
	?capacity@?$vector@V?$buffer_view@D@mqtt@@V?$allocator@V?$buffer_view@D@mqtt@@@std@@@std@@QEBA_KXZ
	?capacity@?$vector@V?$shared_ptr@Vdelivery_token@mqtt@@@std@@V?$allocator@V?$shared_ptr@Vdelivery_token@mqtt@@@std@@@2@@std@@QEBA_KXZ
	?capacity@?$vector@W4ReasonCode@mqtt@@V?$allocator@W4ReasonCode@mqtt@@@std@@@std@@QEBA_KXZ
	?category@error_code@std@@QEBAAEBVerror_category@2@XZ
	?category@error_condition@std@@QEBAAEBVerror_category@2@XZ
	?check_ret@async_client@mqtt@@CAXH@Z
	?check_ret@token@mqtt@@AEBAXXZ
	?clear@?$basic_string@DU?$char_traits@D@std@@V?$allocator@D@2@@std@@QEAAXXZ
	?clear@?$vector@PEBDV?$allocator@PEBD@std@@@std@@QEAAXXZ
	?clear@?$vector@UMQTTSubscribe_options@@V?$allocator@UMQTTSubscribe_options@@@std@@@std@@QEAAXXZ
	?clear@?$vector@V?$basic_string@DU?$char_traits@D@std@@V?$allocator@D@2@@std@@V?$allocator@V?$basic_string@DU?$char_traits@D@std@@V?$allocator@D@2@@std@@@2@@std@@QEAAXXZ
	?clear@properties@mqtt@@QEAAXXZ
	?clear@string_collection@mqtt@@QEAAXXZ
	?clear_payload@message@mqtt@@QEAAXXZ
	?compare_exchange_strong@?$_Atomic_storage@J$03@std@@QEAA_NAEAJJW4memory_order@2@@Z
	?connect@async_client@mqtt@@$4PPPPPPPM@A@EAA?AV?$shared_ptr@Vtoken@mqtt@@@std@@PEAXAEAViaction_listener@2@@Z
	?connect@async_client@mqtt@@$4PPPPPPPM@A@EAA?AV?$shared_ptr@Vtoken@mqtt@@@std@@Vconnect_options@2@@Z
	?connect@async_client@mqtt@@$4PPPPPPPM@A@EAA?AV?$shared_ptr@Vtoken@mqtt@@@std@@Vconnect_options@2@PEAXAEAViaction_listener@2@@Z
	?connect@async_client@mqtt@@$4PPPPPPPM@A@EAA?AV?$shared_ptr@Vtoken@mqtt@@@std@@XZ
	?connect@async_client@mqtt@@UEAA?AV?$shared_ptr@Vtoken@mqtt@@@std@@PEAXAEAViaction_listener@2@@Z
	?connect@async_client@mqtt@@UEAA?AV?$shared_ptr@Vtoken@mqtt@@@std@@Vconnect_options@2@@Z
	?connect@async_client@mqtt@@UEAA?AV?$shared_ptr@Vtoken@mqtt@@@std@@Vconnect_options@2@PEAXAEAViaction_listener@2@@Z
	?connect@async_client@mqtt@@UEAA?AV?$shared_ptr@Vtoken@mqtt@@@std@@XZ
	?connect@client@mqtt@@UEAA?AVconnect_response@2@Vconnect_options@2@@Z
	?connect@client@mqtt@@UEAA?AVconnect_response@2@XZ
	?connected@callback@mqtt@@UEAAXAEBV?$basic_string@DU?$char_traits@D@std@@V?$allocator@D@2@@std@@@Z
	?connected@client@mqtt@@EEAAXAEBV?$basic_string@DU?$char_traits@D@std@@V?$allocator@D@2@@std@@@Z
	?connection_lost@callback@mqtt@@UEAAXAEBV?$basic_string@DU?$char_traits@D@std@@V?$allocator@D@2@@std@@@Z
	?connection_lost@client@mqtt@@EEAAXAEBV?$basic_string@DU?$char_traits@D@std@@V?$allocator@D@2@@std@@@Z
	?copy@?$_Narrow_char_traits@DH@std@@SAPEADQEADQEBD_K@Z
	?copy@property@mqtt@@AEAAXAEBUMQTTProperty@@@Z
	?count@?$duration@HU?$ratio@$0DM@$00@std@@@chrono@std@@QEBAHXZ
	?count@?$duration@NU?$ratio@$00$00@std@@@chrono@std@@QEBANXZ
	?count@?$duration@NU?$ratio@$00$0DLJKMKAA@@std@@@chrono@std@@QEBANXZ
	?count@?$duration@_JU?$ratio@$00$00@std@@@chrono@std@@QEBA_JXZ
	?count@?$duration@_JU?$ratio@$00$0DLJKMKAA@@std@@@chrono@std@@QEBA_JXZ
	?count@?$duration@_JU?$ratio@$00$0DOI@@std@@@chrono@std@@QEBA_JXZ
	?count@?$duration@_JU?$ratio@$00$0JIJGIA@@std@@@chrono@std@@QEBA_JXZ
	?create@delivery_token@mqtt@@SA?AV?$shared_ptr@Vdelivery_token@mqtt@@@std@@AEAViasync_client@2@V?$shared_ptr@$$CBVmessage@mqtt@@@4@@Z
	?create@delivery_token@mqtt@@SA?AV?$shared_ptr@Vdelivery_token@mqtt@@@std@@AEAViasync_client@2@V?$shared_ptr@$$CBVmessage@mqtt@@@4@PEAXAEAViaction_listener@2@@Z
	?create@message@mqtt@@SA?AV?$shared_ptr@Vmessage@mqtt@@@std@@V?$buffer_ref@D@2@0H_N@Z
	?create@message@mqtt@@SA?AV?$shared_ptr@Vmessage@mqtt@@@std@@V?$buffer_ref@D@2@AEBUMQTTAsync_message@@@Z
	?create@message@mqtt@@SA?AV?$shared_ptr@Vmessage@mqtt@@@std@@V?$buffer_ref@D@2@PEBX_KH_N@Z
	?create@string_collection@mqtt@@SA?AV?$shared_ptr@Vstring_collection@mqtt@@@std@@AEBV?$basic_string@DU?$char_traits@D@std@@V?$allocator@D@2@@4@@Z
	?create@token@mqtt@@SA?AV?$shared_ptr@Vtoken@mqtt@@@std@@W4Type@12@AEAViasync_client@2@@Z
	?create@token@mqtt@@SA?AV?$shared_ptr@Vtoken@mqtt@@@std@@W4Type@12@AEAViasync_client@2@AEBV?$basic_string@DU?$char_traits@D@std@@V?$allocator@D@2@@4@@Z
	?create@token@mqtt@@SA?AV?$shared_ptr@Vtoken@mqtt@@@std@@W4Type@12@AEAViasync_client@2@AEBV?$basic_string@DU?$char_traits@D@std@@V?$allocator@D@2@@4@PEAXAEAViaction_listener@2@@Z
	?create@token@mqtt@@SA?AV?$shared_ptr@Vtoken@mqtt@@@std@@W4Type@12@AEAViasync_client@2@PEAXAEAViaction_listener@2@@Z
	?create@token@mqtt@@SA?AV?$shared_ptr@Vtoken@mqtt@@@std@@W4Type@12@AEAViasync_client@2@V?$shared_ptr@$$CBVstring_collection@mqtt@@@4@@Z
	?create@token@mqtt@@SA?AV?$shared_ptr@Vtoken@mqtt@@@std@@W4Type@12@AEAViasync_client@2@V?$shared_ptr@$$CBVstring_collection@mqtt@@@4@PEAXAEAViaction_listener@2@@Z
	?current_exception@std@@YA?AVexception_ptr@1@XZ
	?data@?$basic_string@DU?$char_traits@D@std@@V?$allocator@D@2@@std@@QEBAPEBDXZ
	?data@?$buffer_ref@D@mqtt@@QEBAPEBDXZ
	?data@?$buffer_view@D@mqtt@@QEBAPEBDXZ
	?data@?$vector@HV?$allocator@H@std@@@std@@QEBAPEBHXZ
	?data@?$vector@PEBDV?$allocator@PEBD@std@@@std@@QEBAPEBQEBDXZ
	?data@?$vector@UMQTTSubscribe_options@@V?$allocator@UMQTTSubscribe_options@@@std@@@std@@QEAAPEAUMQTTSubscribe_options@@XZ
	?deallocate@?$_Default_allocator_traits@V?$allocator@U?$_List_node@V?$shared_ptr@Vdelivery_token@mqtt@@@std@@PEAX@std@@@std@@@std@@SAXAEAV?$allocator@U?$_List_node@V?$shared_ptr@Vdelivery_token@mqtt@@@std@@PEAX@std@@@2@QEAU?$_List_node@V?$shared_ptr@Vdelivery_token@mqtt@@@std@@PEAX@2@_K@Z
	?deallocate@?$_Default_allocator_traits@V?$allocator@U?$_List_node@V?$shared_ptr@Vtoken@mqtt@@@std@@PEAX@std@@@std@@@std@@SAXAEAV?$allocator@U?$_List_node@V?$shared_ptr@Vtoken@mqtt@@@std@@PEAX@std@@@2@QEAU?$_List_node@V?$shared_ptr@Vtoken@mqtt@@@std@@PEAX@2@_K@Z
	?deallocate@?$_Default_allocator_traits@V?$allocator@U_Container_proxy@std@@@std@@@std@@SAXAEAV?$allocator@U_Container_proxy@std@@@2@QEAU_Container_proxy@2@_K@Z
	?deallocate@?$allocator@D@std@@QEAAXQEAD_K@Z
	?deallocate@?$allocator@H@std@@QEAAXQEAH_K@Z
	?deallocate@?$allocator@PEAV?$shared_ptr@$$CBVmessage@mqtt@@@std@@@std@@QEAAXQEAPEAV?$shared_ptr@$$CBVmessage@mqtt@@@2@_K@Z
	?deallocate@?$allocator@PEAX@std@@QEAAXQEAPEAX_K@Z
	?deallocate@?$allocator@PEBD@std@@QEAAXQEAPEBD_K@Z
	?deallocate@?$allocator@U?$_List_node@V?$shared_ptr@Vdelivery_token@mqtt@@@std@@PEAX@std@@@std@@QEAAXQEAU?$_List_node@V?$shared_ptr@Vdelivery_token@mqtt@@@std@@PEAX@2@_K@Z
	?deallocate@?$allocator@U?$_List_node@V?$shared_ptr@Vtoken@mqtt@@@std@@PEAX@std@@@std@@QEAAXQEAU?$_List_node@V?$shared_ptr@Vtoken@mqtt@@@std@@PEAX@2@_K@Z
	?deallocate@?$allocator@UMQTTSubscribe_options@@@std@@QEAAXQEAUMQTTSubscribe_options@@_K@Z
	?deallocate@?$allocator@V?$basic_string@DU?$char_traits@D@std@@V?$allocator@D@2@@std@@@std@@QEAAXQEAV?$basic_string@DU?$char_traits@D@std@@V?$allocator@D@2@@2@_K@Z
	?deallocate@?$allocator@V?$buffer_view@D@mqtt@@@std@@QEAAXQEAV?$buffer_view@D@mqtt@@_K@Z
	?deallocate@?$allocator@V?$shared_ptr@$$CBVmessage@mqtt@@@std@@@std@@QEAAXQEAV?$shared_ptr@$$CBVmessage@mqtt@@@2@_K@Z
	?deallocate@?$allocator@V?$shared_ptr@Vdelivery_token@mqtt@@@std@@@std@@QEAAXQEAV?$shared_ptr@Vdelivery_token@mqtt@@@2@_K@Z
	?deallocate@?$allocator@Vsubscribe_options@mqtt@@@std@@QEAAXQEAVsubscribe_options@mqtt@@_K@Z
	?deallocate@?$allocator@W4ReasonCode@mqtt@@@std@@QEAAXQEAW4ReasonCode@mqtt@@_K@Z
	?default_error_condition@error_category@std@@UEBA?AVerror_condition@2@H@Z
	?delivery_complete@callback@mqtt@@UEAAXV?$shared_ptr@Vdelivery_token@mqtt@@@std@@@Z
	?delivery_complete@client@mqtt@@EEAAXV?$shared_ptr@Vdelivery_token@mqtt@@@std@@@Z
	?disable_callbacks@async_client@mqtt@@$4PPPPPPPM@A@EAAXXZ
	?disable_callbacks@async_client@mqtt@@UEAAXXZ
	?disconnect@async_client@mqtt@@$4PPPPPPPM@A@EAA?AV?$shared_ptr@Vtoken@mqtt@@@std@@H@Z
	?disconnect@async_client@mqtt@@$4PPPPPPPM@A@EAA?AV?$shared_ptr@Vtoken@mqtt@@@std@@HPEAXAEAViaction_listener@2@@Z
	?disconnect@async_client@mqtt@@$4PPPPPPPM@A@EAA?AV?$shared_ptr@Vtoken@mqtt@@@std@@PEAXAEAViaction_listener@2@@Z
	?disconnect@async_client@mqtt@@$4PPPPPPPM@A@EAA?AV?$shared_ptr@Vtoken@mqtt@@@std@@Vdisconnect_options@2@@Z
	?disconnect@async_client@mqtt@@$4PPPPPPPM@A@EAA?AV?$shared_ptr@Vtoken@mqtt@@@std@@XZ
	?disconnect@async_client@mqtt@@UEAA?AV?$shared_ptr@Vtoken@mqtt@@@std@@H@Z
	?disconnect@async_client@mqtt@@UEAA?AV?$shared_ptr@Vtoken@mqtt@@@std@@HPEAXAEAViaction_listener@2@@Z
	?disconnect@async_client@mqtt@@UEAA?AV?$shared_ptr@Vtoken@mqtt@@@std@@PEAXAEAViaction_listener@2@@Z
	?disconnect@async_client@mqtt@@UEAA?AV?$shared_ptr@Vtoken@mqtt@@@std@@Vdisconnect_options@2@@Z
	?disconnect@async_client@mqtt@@UEAA?AV?$shared_ptr@Vtoken@mqtt@@@std@@XZ
	?disconnect@client@mqtt@@UEAAXH@Z
	?disconnect@client@mqtt@@UEAAXXZ
	?empty@?$basic_string@DU?$char_traits@D@std@@V?$allocator@D@2@@std@@QEBA_NXZ
	?empty@?$buffer_ref@D@mqtt@@QEBA_NXZ
	?empty@?$deque@V?$shared_ptr@$$CBVmessage@mqtt@@@std@@V?$allocator@V?$shared_ptr@$$CBVmessage@mqtt@@@std@@@2@@std@@QEBA_NXZ
	?empty@TokenRegistrationContainer@_CancellationTokenState@details@Concurrency@@QEAA_NXZ
	?empty@properties@mqtt@@QEBA_NXZ
	?end@?$initializer_list@PEBD@std@@QEBAPEBQEBDXZ
	?end@?$initializer_list@V?$basic_string@DU?$char_traits@D@std@@V?$allocator@D@2@@std@@@std@@QEBAPEBV?$basic_string@DU?$char_traits@D@std@@V?$allocator@D@2@@2@XZ
	?end@?$initializer_list@Vproperty@mqtt@@@std@@QEBAPEBVproperty@mqtt@@XZ
	?end@?$list@V?$shared_ptr@Vdelivery_token@mqtt@@@std@@V?$allocator@V?$shared_ptr@Vdelivery_token@mqtt@@@std@@@2@@std@@QEAA?AV?$_List_iterator@V?$_List_val@U?$_List_simple_types@V?$shared_ptr@Vdelivery_token@mqtt@@@std@@@std@@@std@@@2@XZ
	?end@?$list@V?$shared_ptr@Vtoken@mqtt@@@std@@V?$allocator@V?$shared_ptr@Vtoken@mqtt@@@std@@@2@@std@@QEAA?AV?$_List_iterator@V?$_List_val@U?$_List_simple_types@V?$shared_ptr@Vtoken@mqtt@@@std@@@std@@@std@@@2@XZ
	?equivalent@error_category@std@@UEBA_NAEBVerror_code@2@H@Z
	?equivalent@error_category@std@@UEBA_NHAEBVerror_condition@2@@Z
	?erase@?$list@V?$shared_ptr@Vdelivery_token@mqtt@@@std@@V?$allocator@V?$shared_ptr@Vdelivery_token@mqtt@@@std@@@2@@std@@QEAA?AV?$_List_iterator@V?$_List_val@U?$_List_simple_types@V?$shared_ptr@Vdelivery_token@mqtt@@@std@@@std@@@std@@@2@V?$_List_const_iterator@V?$_List_val@U?$_List_simple_types@V?$shared_ptr@Vdelivery_token@mqtt@@@std@@@std@@@std@@@2@@Z
	?erase@?$list@V?$shared_ptr@Vtoken@mqtt@@@std@@V?$allocator@V?$shared_ptr@Vtoken@mqtt@@@std@@@2@@std@@QEAA?AV?$_List_iterator@V?$_List_val@U?$_List_simple_types@V?$shared_ptr@Vtoken@mqtt@@@std@@@std@@@std@@@2@V?$_List_const_iterator@V?$_List_val@U?$_List_simple_types@V?$shared_ptr@Vtoken@mqtt@@@std@@@std@@@std@@@2@@Z
	?error_str@exception@mqtt@@SA?AV?$basic_string@DU?$char_traits@D@std@@V?$allocator@D@2@@std@@H@Z
	?exchange@?$_Atomic_storage@J$03@std@@QEAAJJW4memory_order@2@@Z
	?future_category@std@@YAAEBVerror_category@1@XZ
	?generic_category@std@@YAAEBVerror_category@1@XZ
	?get@?$_Ptr_base@$$CBV?$basic_string@DU?$char_traits@D@std@@V?$allocator@D@2@@std@@@std@@IEBAPEBV?$basic_string@DU?$char_traits@D@std@@V?$allocator@D@2@@2@XZ
	?get@?$_Ptr_base@$$CBVmessage@mqtt@@@std@@IEBAPEBVmessage@mqtt@@XZ
	?get@?$_Ptr_base@$$CBVstring_collection@mqtt@@@std@@IEBAPEBVstring_collection@mqtt@@XZ
	?get@?$_Ptr_base@U?$_Task_impl@E@details@Concurrency@@@std@@IEBAPEAU?$_Task_impl@E@details@Concurrency@@XZ
	?get@?$_Ptr_base@U_ExceptionHolder@details@Concurrency@@@std@@IEBAPEAU_ExceptionHolder@details@Concurrency@@XZ
	?get@?$_Ptr_base@U_Task_impl_base@details@Concurrency@@@std@@IEBAPEAU_Task_impl_base@details@Concurrency@@XZ
	?get@?$_Ptr_base@Uscheduler_interface@Concurrency@@@std@@IEBAPEAUscheduler_interface@Concurrency@@XZ
	?get@?$_Ptr_base@Vdelivery_token@mqtt@@@std@@IEBAPEAVdelivery_token@mqtt@@XZ
	?get@?$_Ptr_base@Vtoken@mqtt@@@std@@IEBAPEAVtoken@mqtt@@XZ
	?get@?$unique_ptr@UMQTTClient_persistence@@U?$default_delete@UMQTTClient_persistence@@@std@@@std@@QEBAPEAUMQTTClient_persistence@@XZ
	?get@properties@mqtt@@QEAA?AVproperty@2@W4code@32@_K@Z
	?get@scheduler_ptr@Concurrency@@QEBAPEAUscheduler_interface@2@XZ
	?get_action_callback@token@mqtt@@UEBAPEAViaction_listener@2@XZ
	?get_ambient_scheduler@Concurrency@@YAAEBV?$shared_ptr@Uscheduler_interface@Concurrency@@@std@@XZ
	?get_cancellation_token@task_options@Concurrency@@QEBA?AVcancellation_token@2@XZ
	?get_client@token@mqtt@@UEBAPEAViasync_client@2@XZ
	?get_client_id@async_client@mqtt@@$4PPPPPPPM@A@EBA?AV?$basic_string@DU?$char_traits@D@std@@V?$allocator@D@2@@std@@XZ
	?get_client_id@async_client@mqtt@@UEBA?AV?$basic_string@DU?$char_traits@D@std@@V?$allocator@D@2@@std@@XZ
	?get_client_id@client@mqtt@@UEBA?AV?$basic_string@DU?$char_traits@D@std@@V?$allocator@D@2@@std@@XZ
	?get_connect_response@token@mqtt@@QEBA?AVconnect_response@2@XZ
	?get_message@delivery_token@mqtt@@UEBA?AV?$shared_ptr@$$CBVmessage@mqtt@@@std@@XZ
	?get_message_id@token@mqtt@@UEBAHXZ
	?get_name@topic@mqtt@@QEBAAEBV?$basic_string@DU?$char_traits@D@std@@V?$allocator@D@2@@std@@XZ
	?get_payload@message@mqtt@@QEBAAEBV?$basic_string@DU?$char_traits@D@std@@V?$allocator@D@2@@std@@XZ
	?get_pending_delivery_token@async_client@mqtt@@$4PPPPPPPM@A@EBA?AV?$shared_ptr@Vdelivery_token@mqtt@@@std@@H@Z
	?get_pending_delivery_token@async_client@mqtt@@UEBA?AV?$shared_ptr@Vdelivery_token@mqtt@@@std@@H@Z
	?get_pending_delivery_tokens@async_client@mqtt@@$4PPPPPPPM@A@EBA?AV?$vector@V?$shared_ptr@Vdelivery_token@mqtt@@@std@@V?$allocator@V?$shared_ptr@Vdelivery_token@mqtt@@@std@@@2@@std@@XZ
	?get_pending_delivery_tokens@async_client@mqtt@@UEBA?AV?$vector@V?$shared_ptr@Vdelivery_token@mqtt@@@std@@V?$allocator@V?$shared_ptr@Vdelivery_token@mqtt@@@std@@@2@@std@@XZ
	?get_properties@will_options@mqtt@@QEBAAEBVproperties@2@XZ
	?get_qos@message@mqtt@@QEBAHXZ
	?get_return_code@token@mqtt@@UEBAHXZ
	?get_scheduler@task_options@Concurrency@@QEBA?AUscheduler_ptr@2@XZ
	?get_server_uri@async_client@mqtt@@$4PPPPPPPM@A@EBA?AV?$basic_string@DU?$char_traits@D@std@@V?$allocator@D@2@@std@@XZ
	?get_server_uri@async_client@mqtt@@UEBA?AV?$basic_string@DU?$char_traits@D@std@@V?$allocator@D@2@@std@@XZ
	?get_server_uri@client@mqtt@@UEBA?AV?$basic_string@DU?$char_traits@D@std@@V?$allocator@D@2@@std@@XZ
	?get_subscribe_response@token@mqtt@@QEBA?AUsubscribe_response@2@XZ
	?get_timeout@client@mqtt@@UEBA?AV?$duration@_JU?$ratio@$00$0DOI@@std@@@chrono@std@@XZ
	?get_topic@client@mqtt@@UEAA?AVtopic@2@AEBV?$basic_string@DU?$char_traits@D@std@@V?$allocator@D@2@@std@@@Z
	?get_topic@message@mqtt@@QEBAAEBV?$basic_string@DU?$char_traits@D@std@@V?$allocator@D@2@@std@@XZ
	?get_topics@token@mqtt@@UEBA?AV?$shared_ptr@$$CBVstring_collection@mqtt@@@std@@XZ
	?get_unsubscribe_response@token@mqtt@@QEBA?AVunsubscribe_response@2@XZ
	?get_user_context@token@mqtt@@UEBAPEAXXZ
	?insert@?$basic_string@DU?$char_traits@D@std@@V?$allocator@D@2@@std@@QEAAAEAV12@_KAEBV12@@Z
	?insert@?$basic_string@DU?$char_traits@D@std@@V?$allocator@D@2@@std@@QEAAAEAV12@_KQEBD0@Z
	?insert@?$basic_string@DU?$char_traits@D@std@@V?$allocator@D@2@@std@@QEAAAEAV12@_KQEBD@Z
	?invoke@?$_PPLTaskHandle@EU?$_InitialTaskHandle@XV<lambda_16db0a518715f6321653a25f2424e302>@@U_TypeSelectorNoAsync@details@Concurrency@@@?$task@E@Concurrency@@U_TaskProcHandle@details@3@@details@Concurrency@@UEBAXXZ
	?invoke@?$_PPLTaskHandle@EU?$_InitialTaskHandle@XV<lambda_a28169bf5ada89786cdd03ccb91074b7>@@U_TypeSelectorNoAsync@details@Concurrency@@@?$task@E@Concurrency@@U_TaskProcHandle@details@3@@details@Concurrency@@UEBAXXZ
	?is_complete@token@mqtt@@UEBA_NXZ
	?is_connected@async_client@mqtt@@$4PPPPPPPM@A@EBA_NXZ
	?is_connected@async_client@mqtt@@UEBA_NXZ
	?is_connected@client@mqtt@@UEBA_NXZ
	?is_retained@message@mqtt@@QEBA_NXZ
	?length@?$_Narrow_char_traits@DH@std@@SA_KQEBD@Z
	?length@?$basic_string@DU?$char_traits@D@std@@V?$allocator@D@2@@std@@QEBA_KXZ
	?length@?$buffer_ref@D@mqtt@@QEBA_KXZ
	?length@?$buffer_view@D@mqtt@@QEBA_KXZ
	?load@?$_Atomic_storage@J$03@std@@QEBAJXZ
	?lock@?$unique_lock@Vmutex@std@@@std@@QEAAXXZ
	?lock@?$weak_ptr@U_Task_impl_base@details@Concurrency@@@std@@QEBA?AV?$shared_ptr@U_Task_impl_base@details@Concurrency@@@2@XZ
	?lock@_Mutex_base@std@@QEAAXXZ
	?make_error_code@std@@YA?AVerror_code@1@W4errc@1@@Z
	?make_error_code@std@@YA?AVerror_code@1@W4future_errc@1@@Z
	?max@?$numeric_limits@_J@std@@SA_JXZ
	?max_size@?$_Default_allocator_traits@V?$allocator@D@std@@@std@@SA_KAEBV?$allocator@D@2@@Z
	?max_size@?$_Default_allocator_traits@V?$allocator@H@std@@@std@@SA_KAEBV?$allocator@H@2@@Z
	?max_size@?$_Default_allocator_traits@V?$allocator@PEAX@std@@@std@@SA_KAEBV?$allocator@PEAX@2@@Z
	?max_size@?$_Default_allocator_traits@V?$allocator@PEBD@std@@@std@@SA_KAEBV?$allocator@PEBD@2@@Z
	?max_size@?$_Default_allocator_traits@V?$allocator@U?$_List_node@V?$shared_ptr@Vdelivery_token@mqtt@@@std@@PEAX@std@@@std@@@std@@SA_KAEBV?$allocator@U?$_List_node@V?$shared_ptr@Vdelivery_token@mqtt@@@std@@PEAX@std@@@2@@Z
	?max_size@?$_Default_allocator_traits@V?$allocator@U?$_List_node@V?$shared_ptr@Vtoken@mqtt@@@std@@PEAX@std@@@std@@@std@@SA_KAEBV?$allocator@U?$_List_node@V?$shared_ptr@Vtoken@mqtt@@@std@@PEAX@std@@@2@@Z
	?max_size@?$_Default_allocator_traits@V?$allocator@UMQTTSubscribe_options@@@std@@@std@@SA_KAEBV?$allocator@UMQTTSubscribe_options@@@2@@Z
	?max_size@?$_Default_allocator_traits@V?$allocator@V?$basic_string@DU?$char_traits@D@std@@V?$allocator@D@2@@std@@@std@@@std@@SA_KAEBV?$allocator@V?$basic_string@DU?$char_traits@D@std@@V?$allocator@D@2@@std@@@2@@Z
	?max_size@?$_Default_allocator_traits@V?$allocator@V?$buffer_view@D@mqtt@@@std@@@std@@SA_KAEBV?$allocator@V?$buffer_view@D@mqtt@@@2@@Z
	?max_size@?$_Default_allocator_traits@V?$allocator@V?$shared_ptr@$$CBVmessage@mqtt@@@std@@@std@@@std@@SA_KAEBV?$allocator@V?$shared_ptr@$$CBVmessage@mqtt@@@std@@@2@@Z
	?max_size@?$_Default_allocator_traits@V?$allocator@V?$shared_ptr@Vdelivery_token@mqtt@@@std@@@std@@@std@@SA_KAEBV?$allocator@V?$shared_ptr@Vdelivery_token@mqtt@@@std@@@2@@Z
	?max_size@?$_Default_allocator_traits@V?$allocator@W4ReasonCode@mqtt@@@std@@@std@@SA_KAEBV?$allocator@W4ReasonCode@mqtt@@@2@@Z
	?max_size@?$basic_string@DU?$char_traits@D@std@@V?$allocator@D@2@@std@@QEBA_KXZ
	?max_size@?$deque@V?$shared_ptr@$$CBVmessage@mqtt@@@std@@V?$allocator@V?$shared_ptr@$$CBVmessage@mqtt@@@std@@@2@@std@@QEBA_KXZ
	?max_size@?$list@V?$shared_ptr@Vdelivery_token@mqtt@@@std@@V?$allocator@V?$shared_ptr@Vdelivery_token@mqtt@@@std@@@2@@std@@QEBA_KXZ
	?max_size@?$list@V?$shared_ptr@Vtoken@mqtt@@@std@@V?$allocator@V?$shared_ptr@Vtoken@mqtt@@@std@@@2@@std@@QEBA_KXZ
	?max_size@?$vector@HV?$allocator@H@std@@@std@@QEBA_KXZ
	?max_size@?$vector@PEAXV?$allocator@PEAX@std@@@std@@QEBA_KXZ
	?max_size@?$vector@PEBDV?$allocator@PEBD@std@@@std@@QEBA_KXZ
	?max_size@?$vector@UMQTTSubscribe_options@@V?$allocator@UMQTTSubscribe_options@@@std@@@std@@QEBA_KXZ
	?max_size@?$vector@V?$basic_string@DU?$char_traits@D@std@@V?$allocator@D@2@@std@@V?$allocator@V?$basic_string@DU?$char_traits@D@std@@V?$allocator@D@2@@std@@@2@@std@@QEBA_KXZ
	?max_size@?$vector@V?$buffer_view@D@mqtt@@V?$allocator@V?$buffer_view@D@mqtt@@@std@@@std@@QEBA_KXZ
	?max_size@?$vector@V?$shared_ptr@Vdelivery_token@mqtt@@@std@@V?$allocator@V?$shared_ptr@Vdelivery_token@mqtt@@@std@@@2@@std@@QEBA_KXZ
	?max_size@?$vector@W4ReasonCode@mqtt@@V?$allocator@W4ReasonCode@mqtt@@@std@@@std@@QEBA_KXZ
	?message@_Future_error_category@std@@UEBA?AV?$basic_string@DU?$char_traits@D@std@@V?$allocator@D@2@@2@H@Z
	?message@_Generic_error_category@std@@UEBA?AV?$basic_string@DU?$char_traits@D@std@@V?$allocator@D@2@@2@H@Z
	?message@error_code@std@@QEBA?AV?$basic_string@DU?$char_traits@D@std@@V?$allocator@D@2@@2@XZ
	?message_arrived@callback@mqtt@@UEAAXV?$shared_ptr@$$CBVmessage@mqtt@@@std@@@Z
	?message_arrived@client@mqtt@@EEAAXV?$shared_ptr@$$CBVmessage@mqtt@@@std@@@Z
	?move@?$_Narrow_char_traits@DH@std@@SAPEADQEADQEBD_K@Z
	?mutex@?$unique_lock@Vmutex@std@@@std@@QEBAPEAV02@XZ
	?name@_Future_error_category@std@@UEBAPEBDXZ
	?name@_Generic_error_category@std@@UEBAPEBDXZ
	?none@cancellation_token@Concurrency@@SA?AV12@XZ
	?notify_all@condition_variable@std@@QEAAXXZ
	?notify_one@condition_variable@std@@QEAAXXZ
	?now@steady_clock@chrono@std@@SA?AV?$time_point@Usteady_clock@chrono@std@@V?$duration@_JU?$ratio@$00$0DLJKMKAA@@std@@@23@@23@XZ
	?now@system_clock@chrono@std@@SA?AV?$time_point@Usystem_clock@chrono@std@@V?$duration@_JU?$ratio@$00$0JIJGIA@@std@@@23@@23@XZ
	?on_connected@async_client@mqtt@@CAXPEAXPEAD@Z
	?on_connection_lost@async_client@mqtt@@CAXPEAXPEAD@Z
	?on_failure5@token@mqtt@@AEAAXPEAUMQTTAsync_failureData5@@@Z
	?on_failure5@token@mqtt@@CAXPEAXPEAUMQTTAsync_failureData5@@@Z
	?on_failure@token@mqtt@@AEAAXPEAUMQTTAsync_failureData@@@Z
	?on_failure@token@mqtt@@CAXPEAXPEAUMQTTAsync_failureData@@@Z
	?on_message_arrived@async_client@mqtt@@CAHPEAXPEADHPEAUMQTTAsync_message@@@Z
	?on_success5@token@mqtt@@AEAAXPEAUMQTTAsync_successData5@@@Z
	?on_success5@token@mqtt@@CAXPEAXPEAUMQTTAsync_successData5@@@Z
	?on_success@token@mqtt@@AEAAXPEAUMQTTAsync_successData@@@Z
	?on_success@token@mqtt@@CAXPEAXPEAUMQTTAsync_successData@@@Z
	?persistence_clear@iclient_persistence@mqtt@@CAHPEAX@Z
	?persistence_close@iclient_persistence@mqtt@@CAHPEAX@Z
	?persistence_containskey@iclient_persistence@mqtt@@CAHPEAXPEAD@Z
	?persistence_get@iclient_persistence@mqtt@@CAHPEAXPEADPEAPEADPEAH@Z
	?persistence_keys@iclient_persistence@mqtt@@CAHPEAXPEAPEAPEADPEAH@Z
	?persistence_open@iclient_persistence@mqtt@@CAHPEAPEAXPEBD1PEAX@Z
	?persistence_put@iclient_persistence@mqtt@@CAHPEAXPEADHQEAPEADQEAH@Z
	?persistence_remove@iclient_persistence@mqtt@@CAHPEAXPEAD@Z
	?pointer_to@?$pointer_traits@PEAV?$shared_ptr@Vdelivery_token@mqtt@@@std@@@std@@SAPEAV?$shared_ptr@Vdelivery_token@mqtt@@@2@AEAV32@@Z
	?pointer_to@?$pointer_traits@PEAV?$shared_ptr@Vtoken@mqtt@@@std@@@std@@SAPEAV?$shared_ptr@Vtoken@mqtt@@@2@AEAV32@@Z
	?pop_back@?$deque@V?$shared_ptr@$$CBVmessage@mqtt@@@std@@V?$allocator@V?$shared_ptr@$$CBVmessage@mqtt@@@std@@@2@@std@@QEAAXXZ
	?printable_error@exception@mqtt@@SA?AV?$basic_string@DU?$char_traits@D@std@@V?$allocator@D@2@@std@@HHAEBV34@@Z
	?publish@async_client@mqtt@@$4PPPPPPPM@A@EAA?AV?$shared_ptr@Vdelivery_token@mqtt@@@std@@V?$buffer_ref@D@2@0@Z
	?publish@async_client@mqtt@@$4PPPPPPPM@A@EAA?AV?$shared_ptr@Vdelivery_token@mqtt@@@std@@V?$buffer_ref@D@2@0H_N@Z
	?publish@async_client@mqtt@@$4PPPPPPPM@A@EAA?AV?$shared_ptr@Vdelivery_token@mqtt@@@std@@V?$buffer_ref@D@2@PEBX_K@Z
	?publish@async_client@mqtt@@$4PPPPPPPM@A@EAA?AV?$shared_ptr@Vdelivery_token@mqtt@@@std@@V?$buffer_ref@D@2@PEBX_KH_N@Z
	?publish@async_client@mqtt@@$4PPPPPPPM@A@EAA?AV?$shared_ptr@Vdelivery_token@mqtt@@@std@@V?$buffer_ref@D@2@PEBX_KH_NPEAXAEAViaction_listener@2@@Z
	?publish@async_client@mqtt@@$4PPPPPPPM@A@EAA?AV?$shared_ptr@Vdelivery_token@mqtt@@@std@@V?$shared_ptr@$$CBVmessage@mqtt@@@4@@Z
	?publish@async_client@mqtt@@$4PPPPPPPM@A@EAA?AV?$shared_ptr@Vdelivery_token@mqtt@@@std@@V?$shared_ptr@$$CBVmessage@mqtt@@@4@PEAXAEAViaction_listener@2@@Z
	?publish@async_client@mqtt@@UEAA?AV?$shared_ptr@Vdelivery_token@mqtt@@@std@@V?$buffer_ref@D@2@0@Z
	?publish@async_client@mqtt@@UEAA?AV?$shared_ptr@Vdelivery_token@mqtt@@@std@@V?$buffer_ref@D@2@0H_N@Z
	?publish@async_client@mqtt@@UEAA?AV?$shared_ptr@Vdelivery_token@mqtt@@@std@@V?$buffer_ref@D@2@PEBX_K@Z
	?publish@async_client@mqtt@@UEAA?AV?$shared_ptr@Vdelivery_token@mqtt@@@std@@V?$buffer_ref@D@2@PEBX_KH_N@Z
	?publish@async_client@mqtt@@UEAA?AV?$shared_ptr@Vdelivery_token@mqtt@@@std@@V?$buffer_ref@D@2@PEBX_KH_NPEAXAEAViaction_listener@2@@Z
	?publish@async_client@mqtt@@UEAA?AV?$shared_ptr@Vdelivery_token@mqtt@@@std@@V?$shared_ptr@$$CBVmessage@mqtt@@@4@@Z
	?publish@async_client@mqtt@@UEAA?AV?$shared_ptr@Vdelivery_token@mqtt@@@std@@V?$shared_ptr@$$CBVmessage@mqtt@@@4@PEAXAEAViaction_listener@2@@Z
	?publish@client@mqtt@@UEAAXAEBVmessage@2@@Z
	?publish@client@mqtt@@UEAAXV?$buffer_ref@D@2@PEBX_K@Z
	?publish@client@mqtt@@UEAAXV?$buffer_ref@D@2@PEBX_KH_N@Z
	?publish@client@mqtt@@UEAAXV?$shared_ptr@$$CBVmessage@mqtt@@@std@@@Z
	?publish@topic@mqtt@@QEAA?AV?$shared_ptr@Vdelivery_token@mqtt@@@std@@PEBX_K@Z
	?publish@topic@mqtt@@QEAA?AV?$shared_ptr@Vdelivery_token@mqtt@@@std@@PEBX_KH_N@Z
	?publish@topic@mqtt@@QEAA?AV?$shared_ptr@Vdelivery_token@mqtt@@@std@@V?$buffer_ref@D@2@@Z
	?publish@topic@mqtt@@QEAA?AV?$shared_ptr@Vdelivery_token@mqtt@@@std@@V?$buffer_ref@D@2@H_N@Z
	?push_back@?$list@V?$shared_ptr@Vdelivery_token@mqtt@@@std@@V?$allocator@V?$shared_ptr@Vdelivery_token@mqtt@@@std@@@2@@std@@QEAAXAEBV?$shared_ptr@Vdelivery_token@mqtt@@@2@@Z
	?push_back@?$list@V?$shared_ptr@Vtoken@mqtt@@@std@@V?$allocator@V?$shared_ptr@Vtoken@mqtt@@@std@@@2@@std@@QEAAXAEBV?$shared_ptr@Vtoken@mqtt@@@2@@Z
	?push_back@?$vector@HV?$allocator@H@std@@@std@@QEAAXAEBH@Z
	?push_back@?$vector@PEBDV?$allocator@PEBD@std@@@std@@QEAAX$$QEAPEBD@Z
	?push_back@?$vector@UMQTTSubscribe_options@@V?$allocator@UMQTTSubscribe_options@@@std@@@std@@QEAAXAEBUMQTTSubscribe_options@@@Z
	?push_back@?$vector@V?$basic_string@DU?$char_traits@D@std@@V?$allocator@D@2@@std@@V?$allocator@V?$basic_string@DU?$char_traits@D@std@@V?$allocator@D@2@@std@@@2@@std@@QEAAX$$QEAV?$basic_string@DU?$char_traits@D@std@@V?$allocator@D@2@@2@@Z
	?push_back@?$vector@V?$basic_string@DU?$char_traits@D@std@@V?$allocator@D@2@@std@@V?$allocator@V?$basic_string@DU?$char_traits@D@std@@V?$allocator@D@2@@std@@@2@@std@@QEAAXAEBV?$basic_string@DU?$char_traits@D@std@@V?$allocator@D@2@@2@@Z
	?push_back@?$vector@V?$buffer_view@D@mqtt@@V?$allocator@V?$buffer_view@D@mqtt@@@std@@@std@@QEAAX$$QEAV?$buffer_view@D@mqtt@@@Z
	?push_back@?$vector@V?$shared_ptr@Vdelivery_token@mqtt@@@std@@V?$allocator@V?$shared_ptr@Vdelivery_token@mqtt@@@std@@@2@@std@@QEAAXAEBV?$shared_ptr@Vdelivery_token@mqtt@@@2@@Z
	?push_back@?$vector@W4ReasonCode@mqtt@@V?$allocator@W4ReasonCode@mqtt@@@std@@@std@@QEAAX$$QEAW4ReasonCode@mqtt@@@Z
	?push_back@TokenRegistrationContainer@_CancellationTokenState@details@Concurrency@@QEAAXPEAV_CancellationTokenRegistration@34@@Z
	?push_back@string_collection@mqtt@@QEAAX$$QEAV?$basic_string@DU?$char_traits@D@std@@V?$allocator@D@2@@std@@@Z
	?push_back@string_collection@mqtt@@QEAAXAEBV?$basic_string@DU?$char_traits@D@std@@V?$allocator@D@2@@std@@@Z
	?put@?$thread_queue@V?$shared_ptr@$$CBVmessage@mqtt@@@std@@V?$deque@V?$shared_ptr@$$CBVmessage@mqtt@@@std@@V?$allocator@V?$shared_ptr@$$CBVmessage@mqtt@@@std@@@2@@2@@mqtt@@QEAAXV?$shared_ptr@$$CBVmessage@mqtt@@@std@@@Z
	?reason_code_str@exception@mqtt@@SA?AV?$basic_string@DU?$char_traits@D@std@@V?$allocator@D@2@@std@@H@Z
	?reconnect@async_client@mqtt@@$4PPPPPPPM@A@EAA?AV?$shared_ptr@Vtoken@mqtt@@@std@@XZ
	?reconnect@async_client@mqtt@@UEAA?AV?$shared_ptr@Vtoken@mqtt@@@std@@XZ
	?reconnect@client@mqtt@@UEAA?AVconnect_response@2@XZ
	?release@?$unique_lock@Vmutex@std@@@std@@QEAAPEAVmutex@2@XZ
	?remove@TokenRegistrationContainer@_CancellationTokenState@details@Concurrency@@QEAAXPEAV_CancellationTokenRegistration@34@@Z
	?remove_token@async_client@mqtt@@$0PPPPPPPM@A@EAAXPEAVtoken@2@@Z
	?remove_token@async_client@mqtt@@AEAAXV?$shared_ptr@Vdelivery_token@mqtt@@@std@@@Z
	?remove_token@async_client@mqtt@@EEAAXPEAVtoken@2@@Z
	?remove_token@async_client@mqtt@@EEAAXV?$shared_ptr@Vtoken@mqtt@@@std@@@Z
	?reserve@?$basic_string@DU?$char_traits@D@std@@V?$allocator@D@2@@std@@QEAAX_K@Z
	?reserve@?$vector@PEBDV?$allocator@PEBD@std@@@std@@QEAAX_K@Z
	?reset@?$buffer_ref@D@mqtt@@QEAAXXZ
	?reset@?$shared_ptr@$$CBV?$basic_string@DU?$char_traits@D@std@@V?$allocator@D@2@@std@@@std@@QEAAXXZ
	?reset@?$shared_ptr@$$CBVstring_collection@mqtt@@@std@@QEAAXXZ
	?reset@?$shared_ptr@Vtoken@mqtt@@@std@@QEAAXXZ
	?reset@?$unique_ptr@UMQTTClient_persistence@@U?$default_delete@UMQTTClient_persistence@@@std@@@std@@QEAAXPEAUMQTTClient_persistence@@@Z
	?reset@?$unique_ptr@Usubscribe_response@mqtt@@U?$default_delete@Usubscribe_response@mqtt@@@std@@@std@@QEAAXPEAUsubscribe_response@mqtt@@@Z
	?reset@?$unique_ptr@V?$thread_queue@V?$shared_ptr@$$CBVmessage@mqtt@@@std@@V?$deque@V?$shared_ptr@$$CBVmessage@mqtt@@@std@@V?$allocator@V?$shared_ptr@$$CBVmessage@mqtt@@@std@@@2@@2@@mqtt@@U?$default_delete@V?$thread_queue@V?$shared_ptr@$$CBVmessage@mqtt@@@std@@V?$deque@V?$shared_ptr@$$CBVmessage@mqtt@@@std@@V?$allocator@V?$shared_ptr@$$CBVmessage@mqtt@@@std@@@2@@2@@mqtt@@@std@@@std@@QEAAXPEAV?$thread_queue@V?$shared_ptr@$$CBVmessage@mqtt@@@std@@V?$deque@V?$shared_ptr@$$CBVmessage@mqtt@@@std@@V?$allocator@V?$shared_ptr@$$CBVmessage@mqtt@@@std@@@2@@2@@mqtt@@@Z
	?reset@?$unique_ptr@Vconnect_response@mqtt@@U?$default_delete@Vconnect_response@mqtt@@@std@@@std@@QEAAXPEAVconnect_response@mqtt@@@Z
	?reset@?$unique_ptr@Vunsubscribe_response@mqtt@@U?$default_delete@Vunsubscribe_response@mqtt@@@std@@@std@@QEAAXPEAVunsubscribe_response@mqtt@@@Z
	?reset@token@mqtt@@AEAAXXZ
	?resize@?$vector@PEAXV?$allocator@PEAX@std@@@std@@QEAAX_K@Z
	?rethrow_exception@std@@YAXVexception_ptr@1@@Z
	?schedule@_DefaultPPLTaskScheduler@details@Concurrency@@UEAAXP6AXPEAX@Z0@Z
	?select_on_container_copy_construction@?$_Default_allocator_traits@V?$allocator@D@std@@@std@@SA?AV?$allocator@D@2@AEBV32@@Z
	?select_on_container_copy_construction@?$_Default_allocator_traits@V?$allocator@PEAX@std@@@std@@SA?AV?$allocator@PEAX@2@AEBV32@@Z
	?select_on_container_copy_construction@?$_Default_allocator_traits@V?$allocator@V?$basic_string@DU?$char_traits@D@std@@V?$allocator@D@2@@std@@@std@@@std@@SA?AV?$allocator@V?$basic_string@DU?$char_traits@D@std@@V?$allocator@D@2@@std@@@2@AEBV32@@Z
	?select_on_container_copy_construction@?$_Default_allocator_traits@V?$allocator@W4ReasonCode@mqtt@@@std@@@std@@SA?AV?$allocator@W4ReasonCode@mqtt@@@2@AEBV32@@Z
	?set_action_callback@token@mqtt@@UEAAXAEAViaction_listener@2@@Z
	?set_automatic_reconnect@connect_options@mqtt@@QEAAXHH@Z
	?set_callback@async_client@mqtt@@$4PPPPPPPM@A@EAAXAEAVcallback@2@@Z
	?set_callback@async_client@mqtt@@UEAAXAEAVcallback@2@@Z
	?set_callback@client@mqtt@@UEAAXAEAVcallback@2@@Z
	?set_connected_handler@async_client@mqtt@@QEAAXV?$function@$$A6AXAEBV?$basic_string@DU?$char_traits@D@std@@V?$allocator@D@2@@std@@@Z@std@@@Z
	?set_connection_lost_handler@async_client@mqtt@@QEAAXV?$function@$$A6AXAEBV?$basic_string@DU?$char_traits@D@std@@V?$allocator@D@2@@std@@@Z@std@@@Z
	?set_enable_server_cert_auth@ssl_options@mqtt@@QEAAX_N@Z
	?set_enabled_cipher_suites@ssl_options@mqtt@@QEAAXAEBV?$basic_string@DU?$char_traits@D@std@@V?$allocator@D@2@@std@@@Z
	?set_key_store@ssl_options@mqtt@@QEAAXAEBV?$basic_string@DU?$char_traits@D@std@@V?$allocator@D@2@@std@@@Z
	?set_message_callback@async_client@mqtt@@QEAAXV?$function@$$A6AXV?$shared_ptr@$$CBVmessage@mqtt@@@std@@@Z@std@@@Z
	?set_message_id@token@mqtt@@AEAAXH@Z
	?set_mqtt_version@connect_options@mqtt@@QEAAXH@Z
	?set_num_expected@token@mqtt@@QEAAX_K@Z
	?set_password@connect_options@mqtt@@QEAAXV?$buffer_ref@D@2@@Z
	?set_payload@message@mqtt@@QEAAXPEBX_K@Z
	?set_payload@message@mqtt@@QEAAXV?$buffer_ref@D@2@@Z
	?set_payload@will_options@mqtt@@QEAAXV?$basic_string@DU?$char_traits@D@std@@V?$allocator@D@2@@std@@@Z
	?set_payload@will_options@mqtt@@QEAAXV?$buffer_ref@D@2@@Z
	?set_private_key@ssl_options@mqtt@@QEAAXAEBV?$basic_string@DU?$char_traits@D@std@@V?$allocator@D@2@@std@@@Z
	?set_private_key_password@ssl_options@mqtt@@QEAAXAEBV?$basic_string@DU?$char_traits@D@std@@V?$allocator@D@2@@std@@@Z
	?set_qos@message@mqtt@@QEAAXH@Z
	?set_retained@message@mqtt@@QEAAX_N@Z
	?set_servers@connect_options@mqtt@@QEAAXV?$shared_ptr@$$CBVstring_collection@mqtt@@@std@@@Z
	?set_ssl@connect_options@mqtt@@QEAAX$$QEAVssl_options@2@@Z
	?set_ssl@connect_options@mqtt@@QEAAXAEBVssl_options@2@@Z
	?set_subscribe_options@response_options@mqtt@@QEAAXAEBV?$vector@Vsubscribe_options@mqtt@@V?$allocator@Vsubscribe_options@mqtt@@@std@@@std@@@Z
	?set_subscribe_options@response_options@mqtt@@QEAAXAEBVsubscribe_options@2@@Z
	?set_timeout@client@mqtt@@UEAAXH@Z
	?set_timeout@disconnect_options@mqtt@@QEAAXH@Z
	?set_token@connect_options@mqtt@@QEAAXAEBV?$shared_ptr@Vtoken@mqtt@@@std@@@Z
	?set_token@delivery_response_options@mqtt@@QEAAXAEBV?$shared_ptr@Vdelivery_token@mqtt@@@std@@@Z
	?set_token@disconnect_options@mqtt@@QEAAXAEBV?$shared_ptr@Vtoken@mqtt@@@std@@H@Z
	?set_token@response_options@mqtt@@QEAAXAEBV?$shared_ptr@Vtoken@mqtt@@@std@@@Z
	?set_topic@will_options@mqtt@@QEAAXV?$buffer_ref@D@2@@Z
	?set_trust_store@ssl_options@mqtt@@QEAAXAEBV?$basic_string@DU?$char_traits@D@std@@V?$allocator@D@2@@std@@@Z
	?set_user_context@token@mqtt@@UEAAXPEAX@Z
	?set_user_name@connect_options@mqtt@@QEAAXV?$buffer_ref@D@2@@Z
	?set_will@connect_options@mqtt@@QEAAX$$QEAVwill_options@2@@Z
	?set_will@connect_options@mqtt@@QEAAXAEBVwill_options@2@@Z
	?size@?$basic_string@DU?$char_traits@D@std@@V?$allocator@D@2@@std@@QEBA_KXZ
	?size@?$buffer_ref@D@mqtt@@QEBA_KXZ
	?size@?$deque@V?$shared_ptr@$$CBVmessage@mqtt@@@std@@V?$allocator@V?$shared_ptr@$$CBVmessage@mqtt@@@std@@@2@@std@@QEBA_KXZ
	?size@?$queue@V?$shared_ptr@$$CBVmessage@mqtt@@@std@@V?$deque@V?$shared_ptr@$$CBVmessage@mqtt@@@std@@V?$allocator@V?$shared_ptr@$$CBVmessage@mqtt@@@std@@@2@@2@@std@@QEBA_KXZ
	?size@?$vector@HV?$allocator@H@std@@@std@@QEBA_KXZ
	?size@?$vector@V?$basic_string@DU?$char_traits@D@std@@V?$allocator@D@2@@std@@V?$allocator@V?$basic_string@DU?$char_traits@D@std@@V?$allocator@D@2@@std@@@2@@std@@QEBA_KXZ
	?size@?$vector@Vsubscribe_options@mqtt@@V?$allocator@Vsubscribe_options@mqtt@@@std@@@std@@QEBA_KXZ
	?size@string_collection@mqtt@@QEBA_KXZ
	?start_consuming@async_client@mqtt@@QEAAXXZ
	?stop_consuming@async_client@mqtt@@QEAAXXZ
	?store@?$_Atomic_storage@J$03@std@@QEAAXJ@Z
	?str@?$buffer_ref@D@mqtt@@QEBAAEBV?$basic_string@DU?$char_traits@D@std@@V?$allocator@D@2@@std@@XZ
	?subscribe@async_client@mqtt@@$4PPPPPPPM@A@EAA?AV?$shared_ptr@Vtoken@mqtt@@@std@@AEBV?$basic_string@DU?$char_traits@D@std@@V?$allocator@D@2@@4@HAEBVsubscribe_options@2@@Z
	?subscribe@async_client@mqtt@@$4PPPPPPPM@A@EAA?AV?$shared_ptr@Vtoken@mqtt@@@std@@AEBV?$basic_string@DU?$char_traits@D@std@@V?$allocator@D@2@@4@HPEAXAEAViaction_listener@2@AEBVsubscribe_options@2@@Z
	?subscribe@async_client@mqtt@@$4PPPPPPPM@A@EAA?AV?$shared_ptr@Vtoken@mqtt@@@std@@V?$shared_ptr@$$CBVstring_collection@mqtt@@@4@AEBV?$vector@HV?$allocator@H@std@@@4@AEBV?$vector@Vsubscribe_options@mqtt@@V?$allocator@Vsubscribe_options@mqtt@@@std@@@4@@Z
	?subscribe@async_client@mqtt@@$4PPPPPPPM@A@EAA?AV?$shared_ptr@Vtoken@mqtt@@@std@@V?$shared_ptr@$$CBVstring_collection@mqtt@@@4@AEBV?$vector@HV?$allocator@H@std@@@4@PEAXAEAViaction_listener@2@AEBV?$vector@Vsubscribe_options@mqtt@@V?$allocator@Vsubscribe_options@mqtt@@@std@@@4@@Z
	?subscribe@async_client@mqtt@@UEAA?AV?$shared_ptr@Vtoken@mqtt@@@std@@AEBV?$basic_string@DU?$char_traits@D@std@@V?$allocator@D@2@@4@HAEBVsubscribe_options@2@@Z
	?subscribe@async_client@mqtt@@UEAA?AV?$shared_ptr@Vtoken@mqtt@@@std@@AEBV?$basic_string@DU?$char_traits@D@std@@V?$allocator@D@2@@4@HPEAXAEAViaction_listener@2@AEBVsubscribe_options@2@@Z
	?subscribe@async_client@mqtt@@UEAA?AV?$shared_ptr@Vtoken@mqtt@@@std@@V?$shared_ptr@$$CBVstring_collection@mqtt@@@4@AEBV?$vector@HV?$allocator@H@std@@@4@AEBV?$vector@Vsubscribe_options@mqtt@@V?$allocator@Vsubscribe_options@mqtt@@@std@@@4@@Z
	?subscribe@async_client@mqtt@@UEAA?AV?$shared_ptr@Vtoken@mqtt@@@std@@V?$shared_ptr@$$CBVstring_collection@mqtt@@@4@AEBV?$vector@HV?$allocator@H@std@@@4@PEAXAEAViaction_listener@2@AEBV?$vector@Vsubscribe_options@mqtt@@V?$allocator@Vsubscribe_options@mqtt@@@std@@@4@@Z
	?subscribe@client@mqtt@@UEAA?AUsubscribe_response@2@AEBV?$basic_string@DU?$char_traits@D@std@@V?$allocator@D@2@@std@@@Z
	?subscribe@client@mqtt@@UEAA?AUsubscribe_response@2@AEBV?$basic_string@DU?$char_traits@D@std@@V?$allocator@D@2@@std@@H@Z
	?subscribe@client@mqtt@@UEAA?AUsubscribe_response@2@AEBVstring_collection@2@@Z
	?subscribe@client@mqtt@@UEAA?AUsubscribe_response@2@AEBVstring_collection@2@AEBV?$vector@HV?$allocator@H@std@@@std@@@Z
	?subscribe@topic@mqtt@@QEAA?AV?$shared_ptr@Vtoken@mqtt@@@std@@AEBVsubscribe_options@2@@Z
	?swap@?$function@$$A6AXAEBV?$basic_string@DU?$char_traits@D@std@@V?$allocator@D@2@@std@@@Z@std@@QEAAXAEAV12@@Z
	?swap@?$function@$$A6AXV?$shared_ptr@$$CBVmessage@mqtt@@@std@@@Z@std@@QEAAXAEAV12@@Z
	?swap@?$shared_ptr@$$CBV?$basic_string@DU?$char_traits@D@std@@V?$allocator@D@2@@std@@@std@@QEAAXAEAV12@@Z
	?swap@?$shared_ptr@$$CBVstring_collection@mqtt@@@std@@QEAAXAEAV12@@Z
	?swap@?$shared_ptr@U?$_Task_impl@E@details@Concurrency@@@std@@QEAAXAEAV12@@Z
	?swap@?$shared_ptr@U_ExceptionHolder@details@Concurrency@@@std@@QEAAXAEAV12@@Z
	?swap@?$shared_ptr@Vtoken@mqtt@@@std@@QEAAXAEAV12@@Z
	?swap@?$weak_ptr@Vdelivery_token@mqtt@@@std@@QEAAXAEAV12@@Z
	?swap@?$weak_ptr@Vtoken@mqtt@@@std@@QEAAXAEAV12@@Z
	?time_since_epoch@?$time_point@Usteady_clock@chrono@std@@V?$duration@_JU?$ratio@$00$0DLJKMKAA@@std@@@23@@chrono@std@@QEBA?AV?$duration@_JU?$ratio@$00$0DLJKMKAA@@std@@@23@XZ
	?time_since_epoch@?$time_point@Usystem_clock@chrono@std@@V?$duration@_JU?$ratio@$00$0JIJGIA@@std@@@23@@chrono@std@@QEBA?AV?$duration@_JU?$ratio@$00$0JIJGIA@@std@@@23@XZ
	?to_bool@mqtt@@YA_NH@Z
	?to_int@mqtt@@YAH_N@Z
	?to_string@std@@YA?AV?$basic_string@DU?$char_traits@D@std@@V?$allocator@D@2@@1@H@Z
	?try_wait@token@mqtt@@UEAA_NXZ
	?unlock@?$unique_lock@Vmutex@std@@@std@@QEAAXXZ
	?unlock@_Mutex_base@std@@QEAAXXZ
	?unsubscribe@async_client@mqtt@@$4PPPPPPPM@A@EAA?AV?$shared_ptr@Vtoken@mqtt@@@std@@AEBV?$basic_string@DU?$char_traits@D@std@@V?$allocator@D@2@@4@@Z
	?unsubscribe@async_client@mqtt@@$4PPPPPPPM@A@EAA?AV?$shared_ptr@Vtoken@mqtt@@@std@@AEBV?$basic_string@DU?$char_traits@D@std@@V?$allocator@D@2@@4@PEAXAEAViaction_listener@2@@Z
	?unsubscribe@async_client@mqtt@@$4PPPPPPPM@A@EAA?AV?$shared_ptr@Vtoken@mqtt@@@std@@V?$shared_ptr@$$CBVstring_collection@mqtt@@@4@@Z
	?unsubscribe@async_client@mqtt@@$4PPPPPPPM@A@EAA?AV?$shared_ptr@Vtoken@mqtt@@@std@@V?$shared_ptr@$$CBVstring_collection@mqtt@@@4@PEAXAEAViaction_listener@2@@Z
	?unsubscribe@async_client@mqtt@@UEAA?AV?$shared_ptr@Vtoken@mqtt@@@std@@AEBV?$basic_string@DU?$char_traits@D@std@@V?$allocator@D@2@@4@@Z
	?unsubscribe@async_client@mqtt@@UEAA?AV?$shared_ptr@Vtoken@mqtt@@@std@@AEBV?$basic_string@DU?$char_traits@D@std@@V?$allocator@D@2@@4@PEAXAEAViaction_listener@2@@Z
	?unsubscribe@async_client@mqtt@@UEAA?AV?$shared_ptr@Vtoken@mqtt@@@std@@V?$shared_ptr@$$CBVstring_collection@mqtt@@@4@@Z
	?unsubscribe@async_client@mqtt@@UEAA?AV?$shared_ptr@Vtoken@mqtt@@@std@@V?$shared_ptr@$$CBVstring_collection@mqtt@@@4@PEAXAEAViaction_listener@2@@Z
	?unsubscribe@client@mqtt@@UEAA?AVunsubscribe_response@2@AEBV?$basic_string@DU?$char_traits@D@std@@V?$allocator@D@2@@std@@@Z
	?unsubscribe@client@mqtt@@UEAA?AVunsubscribe_response@2@AEBVstring_collection@2@@Z
	?update_c_arr@string_collection@mqtt@@AEAAXXZ
	?update_c_struct@ssl_options@mqtt@@AEAAXXZ
	?use_default@task_continuation_context@Concurrency@@SA?AV12@XZ
	?valid@?$_State_manager@H@std@@QEBA_NXZ
	?validate_qos@message@mqtt@@SAXH@Z
	?value@error_code@std@@QEBAHXZ
	?value@error_condition@std@@QEBAHXZ
	?wait@?$task@E@Concurrency@@QEBA?AW4task_group_status@2@XZ
	?wait@?$task@X@Concurrency@@QEBA?AW4task_group_status@2@XZ
	?wait@condition_variable@std@@QEAAXAEAV?$unique_lock@Vmutex@std@@@2@@Z
	?wait@token@mqtt@@UEAAXXZ
	?wait_for@token@mqtt@@UEAA_NJ@Z
	?wait_until@condition_variable@std@@QEAA?AW4cv_status@2@AEAV?$unique_lock@Vmutex@std@@@2@PEBUxtime@@@Z
	?what@exception@std@@UEBAPEBDXZ
